

Microchip MPLAB XC8 Assembler V2.20 build 20200408173844 
                                                                                               Fri Jul 03 17:22:28 2020

Microchip MPLAB XC8 C Compiler v2.20 (Free license) build 20200408173844 Og1 
     1                           	processor	16F877A
     2                           	pagewidth 120
     3                           	opt	flic
     4                           	psect	idataBANK0,global,class=CODE,delta=2,noexec
     5                           	psect	idataBANK1,global,class=CODE,delta=2,noexec
     6                           	psect	strings,global,class=STRING,delta=2,noexec
     7                           	psect	cinit,global,class=CODE,merge=1,delta=2
     8                           	psect	bssBANK0,global,class=BANK0,space=1,delta=1,noexec
     9                           	psect	dataBANK0,global,class=BANK0,space=1,delta=1,noexec
    10                           	psect	dataBANK1,global,class=BANK1,space=1,delta=1,noexec
    11                           	psect	inittext,global,class=CODE,delta=2
    12                           	psect	clrtext,global,class=CODE,delta=2
    13                           	psect	cstackBANK1,global,class=BANK1,space=1,delta=1,noexec
    14                           	psect	cstackCOMMON,global,class=COMMON,space=1,delta=1,noexec
    15                           	psect	cstackBANK0,global,class=BANK0,space=1,delta=1,noexec
    16                           	psect	maintext,global,class=CODE,split=1,delta=2
    17                           	psect	text1,local,class=CODE,merge=1,delta=2
    18                           	psect	text2,local,class=CODE,merge=1,delta=2
    19                           	psect	text3,local,class=CODE,merge=1,delta=2
    20                           	psect	text4,local,class=CODE,merge=1,delta=2,group=1
    21                           	psect	text5,local,class=CODE,merge=1,delta=2
    22                           	psect	text6,local,class=CODE,merge=1,delta=2
    23                           	psect	text7,local,class=CODE,merge=1,delta=2
    24                           	psect	text8,local,class=CODE,merge=1,delta=2
    25                           	psect	text9,local,class=CODE,merge=1,delta=2
    26                           	psect	text10,local,class=CODE,merge=1,delta=2
    27                           	psect	text11,local,class=CODE,merge=1,delta=2
    28                           	psect	text12,local,class=CODE,merge=1,delta=2
    29                           	psect	text13,local,class=CODE,merge=1,delta=2
    30                           	psect	text14,local,class=CODE,merge=1,delta=2
    31                           	psect	text15,local,class=CODE,merge=1,delta=2
    32                           	psect	text16,local,class=CODE,merge=1,delta=2
    33                           	psect	text17,local,class=CODE,merge=1,delta=2
    34                           	psect	text18,local,class=CODE,merge=1,delta=2
    35                           	psect	text19,local,class=CODE,merge=1,delta=2
    36                           	psect	intentry,global,class=CODE,delta=2
    37                           	psect	text20,local,class=CODE,merge=1,delta=2
    38                           	psect	text21,local,class=CODE,merge=1,delta=2
    39                           	psect	text22,local,class=CODE,merge=1,delta=2
    40                           	psect	text23,local,class=CODE,merge=1,delta=2
    41                           	psect	text24,local,class=CODE,merge=1,delta=2,group=1
    42                           	psect	text25,local,class=CODE,merge=1,delta=2,group=1
    43                           	psect	text26,local,class=CODE,merge=1,delta=2
    44                           	psect	text27,local,class=CODE,merge=1,delta=2,group=1
    45                           	psect	config,global,abs,ovrld,class=CONFIG,space=4,delta=2,noexec
    46                           	dabs	1,0x7E,2
    47  0000                     
    48                           ; Version 2.20
    49                           ; Generated 12/02/2020 GMT
    50                           ; 
    51                           ; Copyright © 2020, Microchip Technology Inc. and its subsidiaries ("Microchip")
    52                           ; All rights reserved.
    53                           ; 
    54                           ; This software is developed by Microchip Technology Inc. and its subsidiaries ("Microch
      +                          ip").
    55                           ; 
    56                           ; Redistribution and use in source and binary forms, with or without modification, are
    57                           ; permitted provided that the following conditions are met:
    58                           ; 
    59                           ;     1. Redistributions of source code must retain the above copyright notice, this lis
      +                          t of
    60                           ;        conditions and the following disclaimer.
    61                           ; 
    62                           ;     2. Redistributions in binary form must reproduce the above copyright notice, this 
      +                          list
    63                           ;        of conditions and the following disclaimer in the documentation and/or other
    64                           ;        materials provided with the distribution.
    65                           ; 
    66                           ;     3. Microchip's name may not be used to endorse or promote products derived from th
      +                          is
    67                           ;        software without specific prior written permission.
    68                           ; 
    69                           ; THIS SOFTWARE IS PROVIDED BY MICROCHIP "AS IS" AND ANY EXPRESS OR IMPLIED WARRANTIES,
    70                           ; INCLUDING, BUT NOT LIMITED TO, THE IMPLIED WARRANTIES OF MERCHANTABILITY AND FITNESS F
      +                          OR
    71                           ; PURPOSE ARE DISCLAIMED.  IN NO EVENT SHALL MICROCHIP BE LIABLE FOR ANY DIRECT, INDIREC
      +                          T,
    72                           ; INCIDENTAL, SPECIAL, EXEMPLARY, OR CONSEQUENTIAL DAMAGES (INCLUDING BUT NOT LIMITED TO
    73                           ; PROCUREMENT OF SUBSTITUTE GOODS OR SERVICES; LOSS OF USE, DATA OR PROFITS; OR BUSINESS
    74                           ; INTERRUPTION) HOWSOEVER CAUSED AND ON ANY THEORY OF LIABILITY, WHETHER IN CONTRACT, ST
      +                          RICT
    75                           ; LIABILITY, OR TORT (INCLUDING NEGLIGENCE OR OTHERWISE) ARISING IN ANY WAY OUT OF THE U
      +                          SE OF
    76                           ; THIS SOFTWARE, EVEN IF ADVISED OF THE POSSIBILITY OF SUCH DAMAGE.
    77                           ; 
    78                           ; 
    79                           ; Code-generator required, PIC16F877A Definitions
    80                           ; 
    81                           ; SFR Addresses
    82  0000                     	;# 
    83  0001                     	;# 
    84  0002                     	;# 
    85  0003                     	;# 
    86  0004                     	;# 
    87  0005                     	;# 
    88  0006                     	;# 
    89  0007                     	;# 
    90  0008                     	;# 
    91  0009                     	;# 
    92  000A                     	;# 
    93  000B                     	;# 
    94  000C                     	;# 
    95  000D                     	;# 
    96  000E                     	;# 
    97  000E                     	;# 
    98  000F                     	;# 
    99  0010                     	;# 
   100  0011                     	;# 
   101  0012                     	;# 
   102  0013                     	;# 
   103  0014                     	;# 
   104  0015                     	;# 
   105  0015                     	;# 
   106  0016                     	;# 
   107  0017                     	;# 
   108  0018                     	;# 
   109  0019                     	;# 
   110  001A                     	;# 
   111  001B                     	;# 
   112  001B                     	;# 
   113  001C                     	;# 
   114  001D                     	;# 
   115  001E                     	;# 
   116  001F                     	;# 
   117  0081                     	;# 
   118  0085                     	;# 
   119  0086                     	;# 
   120  0087                     	;# 
   121  0088                     	;# 
   122  0089                     	;# 
   123  008C                     	;# 
   124  008D                     	;# 
   125  008E                     	;# 
   126  0091                     	;# 
   127  0092                     	;# 
   128  0093                     	;# 
   129  0094                     	;# 
   130  0098                     	;# 
   131  0099                     	;# 
   132  009C                     	;# 
   133  009D                     	;# 
   134  009E                     	;# 
   135  009F                     	;# 
   136  010C                     	;# 
   137  010D                     	;# 
   138  010E                     	;# 
   139  010F                     	;# 
   140  018C                     	;# 
   141  018D                     	;# 
   142  0000                     	;# 
   143  0001                     	;# 
   144  0002                     	;# 
   145  0003                     	;# 
   146  0004                     	;# 
   147  0005                     	;# 
   148  0006                     	;# 
   149  0007                     	;# 
   150  0008                     	;# 
   151  0009                     	;# 
   152  000A                     	;# 
   153  000B                     	;# 
   154  000C                     	;# 
   155  000D                     	;# 
   156  000E                     	;# 
   157  000E                     	;# 
   158  000F                     	;# 
   159  0010                     	;# 
   160  0011                     	;# 
   161  0012                     	;# 
   162  0013                     	;# 
   163  0014                     	;# 
   164  0015                     	;# 
   165  0015                     	;# 
   166  0016                     	;# 
   167  0017                     	;# 
   168  0018                     	;# 
   169  0019                     	;# 
   170  001A                     	;# 
   171  001B                     	;# 
   172  001B                     	;# 
   173  001C                     	;# 
   174  001D                     	;# 
   175  001E                     	;# 
   176  001F                     	;# 
   177  0081                     	;# 
   178  0085                     	;# 
   179  0086                     	;# 
   180  0087                     	;# 
   181  0088                     	;# 
   182  0089                     	;# 
   183  008C                     	;# 
   184  008D                     	;# 
   185  008E                     	;# 
   186  0091                     	;# 
   187  0092                     	;# 
   188  0093                     	;# 
   189  0094                     	;# 
   190  0098                     	;# 
   191  0099                     	;# 
   192  009C                     	;# 
   193  009D                     	;# 
   194  009E                     	;# 
   195  009F                     	;# 
   196  010C                     	;# 
   197  010D                     	;# 
   198  010E                     	;# 
   199  010F                     	;# 
   200  018C                     	;# 
   201  018D                     	;# 
   202  0000                     	;# 
   203  0001                     	;# 
   204  0002                     	;# 
   205  0003                     	;# 
   206  0004                     	;# 
   207  0005                     	;# 
   208  0006                     	;# 
   209  0007                     	;# 
   210  0008                     	;# 
   211  0009                     	;# 
   212  000A                     	;# 
   213  000B                     	;# 
   214  000C                     	;# 
   215  000D                     	;# 
   216  000E                     	;# 
   217  000E                     	;# 
   218  000F                     	;# 
   219  0010                     	;# 
   220  0011                     	;# 
   221  0012                     	;# 
   222  0013                     	;# 
   223  0014                     	;# 
   224  0015                     	;# 
   225  0015                     	;# 
   226  0016                     	;# 
   227  0017                     	;# 
   228  0018                     	;# 
   229  0019                     	;# 
   230  001A                     	;# 
   231  001B                     	;# 
   232  001B                     	;# 
   233  001C                     	;# 
   234  001D                     	;# 
   235  001E                     	;# 
   236  001F                     	;# 
   237  0081                     	;# 
   238  0085                     	;# 
   239  0086                     	;# 
   240  0087                     	;# 
   241  0088                     	;# 
   242  0089                     	;# 
   243  008C                     	;# 
   244  008D                     	;# 
   245  008E                     	;# 
   246  0091                     	;# 
   247  0092                     	;# 
   248  0093                     	;# 
   249  0094                     	;# 
   250  0098                     	;# 
   251  0099                     	;# 
   252  009C                     	;# 
   253  009D                     	;# 
   254  009E                     	;# 
   255  009F                     	;# 
   256  010C                     	;# 
   257  010D                     	;# 
   258  010E                     	;# 
   259  010F                     	;# 
   260  018C                     	;# 
   261  018D                     	;# 
   262  0000                     	;# 
   263  0001                     	;# 
   264  0002                     	;# 
   265  0003                     	;# 
   266  0004                     	;# 
   267  0005                     	;# 
   268  0006                     	;# 
   269  0007                     	;# 
   270  0008                     	;# 
   271  0009                     	;# 
   272  000A                     	;# 
   273  000B                     	;# 
   274  000C                     	;# 
   275  000D                     	;# 
   276  000E                     	;# 
   277  000E                     	;# 
   278  000F                     	;# 
   279  0010                     	;# 
   280  0011                     	;# 
   281  0012                     	;# 
   282  0013                     	;# 
   283  0014                     	;# 
   284  0015                     	;# 
   285  0015                     	;# 
   286  0016                     	;# 
   287  0017                     	;# 
   288  0018                     	;# 
   289  0019                     	;# 
   290  001A                     	;# 
   291  001B                     	;# 
   292  001B                     	;# 
   293  001C                     	;# 
   294  001D                     	;# 
   295  001E                     	;# 
   296  001F                     	;# 
   297  0081                     	;# 
   298  0085                     	;# 
   299  0086                     	;# 
   300  0087                     	;# 
   301  0088                     	;# 
   302  0089                     	;# 
   303  008C                     	;# 
   304  008D                     	;# 
   305  008E                     	;# 
   306  0091                     	;# 
   307  0092                     	;# 
   308  0093                     	;# 
   309  0094                     	;# 
   310  0098                     	;# 
   311  0099                     	;# 
   312  009C                     	;# 
   313  009D                     	;# 
   314  009E                     	;# 
   315  009F                     	;# 
   316  010C                     	;# 
   317  010D                     	;# 
   318  010E                     	;# 
   319  010F                     	;# 
   320  018C                     	;# 
   321  018D                     	;# 
   322  0000                     	;# 
   323  0001                     	;# 
   324  0002                     	;# 
   325  0003                     	;# 
   326  0004                     	;# 
   327  0005                     	;# 
   328  0006                     	;# 
   329  0007                     	;# 
   330  0008                     	;# 
   331  0009                     	;# 
   332  000A                     	;# 
   333  000B                     	;# 
   334  000C                     	;# 
   335  000D                     	;# 
   336  000E                     	;# 
   337  000E                     	;# 
   338  000F                     	;# 
   339  0010                     	;# 
   340  0011                     	;# 
   341  0012                     	;# 
   342  0013                     	;# 
   343  0014                     	;# 
   344  0015                     	;# 
   345  0015                     	;# 
   346  0016                     	;# 
   347  0017                     	;# 
   348  0018                     	;# 
   349  0019                     	;# 
   350  001A                     	;# 
   351  001B                     	;# 
   352  001B                     	;# 
   353  001C                     	;# 
   354  001D                     	;# 
   355  001E                     	;# 
   356  001F                     	;# 
   357  0081                     	;# 
   358  0085                     	;# 
   359  0086                     	;# 
   360  0087                     	;# 
   361  0088                     	;# 
   362  0089                     	;# 
   363  008C                     	;# 
   364  008D                     	;# 
   365  008E                     	;# 
   366  0091                     	;# 
   367  0092                     	;# 
   368  0093                     	;# 
   369  0094                     	;# 
   370  0098                     	;# 
   371  0099                     	;# 
   372  009C                     	;# 
   373  009D                     	;# 
   374  009E                     	;# 
   375  009F                     	;# 
   376  010C                     	;# 
   377  010D                     	;# 
   378  010E                     	;# 
   379  010F                     	;# 
   380  018C                     	;# 
   381  018D                     	;# 
   382  0000                     	;# 
   383  0001                     	;# 
   384  0002                     	;# 
   385  0003                     	;# 
   386  0004                     	;# 
   387  0005                     	;# 
   388  0006                     	;# 
   389  0007                     	;# 
   390  0008                     	;# 
   391  0009                     	;# 
   392  000A                     	;# 
   393  000B                     	;# 
   394  000C                     	;# 
   395  000D                     	;# 
   396  000E                     	;# 
   397  000E                     	;# 
   398  000F                     	;# 
   399  0010                     	;# 
   400  0011                     	;# 
   401  0012                     	;# 
   402  0013                     	;# 
   403  0014                     	;# 
   404  0015                     	;# 
   405  0015                     	;# 
   406  0016                     	;# 
   407  0017                     	;# 
   408  0018                     	;# 
   409  0019                     	;# 
   410  001A                     	;# 
   411  001B                     	;# 
   412  001B                     	;# 
   413  001C                     	;# 
   414  001D                     	;# 
   415  001E                     	;# 
   416  001F                     	;# 
   417  0081                     	;# 
   418  0085                     	;# 
   419  0086                     	;# 
   420  0087                     	;# 
   421  0088                     	;# 
   422  0089                     	;# 
   423  008C                     	;# 
   424  008D                     	;# 
   425  008E                     	;# 
   426  0091                     	;# 
   427  0092                     	;# 
   428  0093                     	;# 
   429  0094                     	;# 
   430  0098                     	;# 
   431  0099                     	;# 
   432  009C                     	;# 
   433  009D                     	;# 
   434  009E                     	;# 
   435  009F                     	;# 
   436  010C                     	;# 
   437  010D                     	;# 
   438  010E                     	;# 
   439  010F                     	;# 
   440  018C                     	;# 
   441  018D                     	;# 
   442  0000                     	;# 
   443  0001                     	;# 
   444  0002                     	;# 
   445  0003                     	;# 
   446  0004                     	;# 
   447  0005                     	;# 
   448  0006                     	;# 
   449  0007                     	;# 
   450  0008                     	;# 
   451  0009                     	;# 
   452  000A                     	;# 
   453  000B                     	;# 
   454  000C                     	;# 
   455  000D                     	;# 
   456  000E                     	;# 
   457  000E                     	;# 
   458  000F                     	;# 
   459  0010                     	;# 
   460  0011                     	;# 
   461  0012                     	;# 
   462  0013                     	;# 
   463  0014                     	;# 
   464  0015                     	;# 
   465  0015                     	;# 
   466  0016                     	;# 
   467  0017                     	;# 
   468  0018                     	;# 
   469  0019                     	;# 
   470  001A                     	;# 
   471  001B                     	;# 
   472  001B                     	;# 
   473  001C                     	;# 
   474  001D                     	;# 
   475  001E                     	;# 
   476  001F                     	;# 
   477  0081                     	;# 
   478  0085                     	;# 
   479  0086                     	;# 
   480  0087                     	;# 
   481  0088                     	;# 
   482  0089                     	;# 
   483  008C                     	;# 
   484  008D                     	;# 
   485  008E                     	;# 
   486  0091                     	;# 
   487  0092                     	;# 
   488  0093                     	;# 
   489  0094                     	;# 
   490  0098                     	;# 
   491  0099                     	;# 
   492  009C                     	;# 
   493  009D                     	;# 
   494  009E                     	;# 
   495  009F                     	;# 
   496  010C                     	;# 
   497  010D                     	;# 
   498  010E                     	;# 
   499  010F                     	;# 
   500  018C                     	;# 
   501  018D                     	;# 
   502                           
   503                           	psect	idataBANK0
   504  0FB5                     __pidataBANK0:
   505                           
   506                           ;initializer for system_startup@F1177
   507  0FB5  3402               	retlw	2
   508  0FB6  3402               	retlw	2
   509  0FB7  3401               	retlw	1
   510  0FB8  3402               	retlw	2
   511  0FB9  3401               	retlw	1
   512  0FBA  3400               	retlw	0
   513                           
   514                           ;initializer for _average_temp
   515  0FBB  3423               	retlw	35
   516  0FBC  3400               	retlw	0
   517                           
   518                           ;initializer for _Seg_Val
   519  0FBD  3460               	retlw	96
   520                           
   521                           ;initializer for _desired_temp
   522  0FBE  343C               	retlw	60
   523                           
   524                           ;initializer for _display_mode
   525  0FBF  3401               	retlw	1
   526                           
   527                           	psect	idataBANK1
   528  0FAC                     __pidataBANK1:
   529                           
   530                           ;initializer for system_startup@F1179
   531  0FAC  3408               	retlw	8
   532  0FAD  3400               	retlw	0
   533  0FAE  3400               	retlw	0
   534  0FAF  3400               	retlw	0
   535  0FB0  34A0               	retlw	160
   536  0FB1  3486               	retlw	134
   537  0FB2  3401               	retlw	1
   538  0FB3  3400               	retlw	0
   539  0FB4  3400               	retlw	0
   540                           
   541                           	psect	strings
   542  07EF                     __pstrings:
   543  07EF                     stringtab:
   544  07EF                     __stringtab:
   545  07EF                     stringcode:	
   546                           ;	String table - string pointers are 1 byte each
   547                           
   548  07EF                     stringdir:
   549  07EF  3007               	movlw	high stringdir
   550  07F0  008A               	movwf	10
   551  07F1  0804               	movf	4,w
   552  07F2  0A84               	incf	4,f
   553  07F3  0782               	addwf	2,f
   554  07F4                     __stringbase:
   555  07F4  3400               	retlw	0
   556  07F5                     __end_of__stringtab:
   557  07F5                     TIMER2_IRQ_Handler@decode:
   558  07F5  343F               	retlw	63
   559  07F6  3406               	retlw	6
   560  07F7  345B               	retlw	91
   561  07F8  344F               	retlw	79
   562  07F9  3466               	retlw	102
   563  07FA  346D               	retlw	109
   564  07FB  347D               	retlw	125
   565  07FC  3407               	retlw	7
   566  07FD  347F               	retlw	127
   567  07FE  346F               	retlw	111
   568  07FF                     __end_ofTIMER2_IRQ_Handler@decode:
   569  0013                     _SSPBUF	set	19
   570  0014                     _SSPCON	set	20
   571  0010                     _T1CON	set	16
   572  000F                     _TMR1H	set	15
   573  000E                     _TMR1L	set	14
   574  0008                     _PORTD	set	8
   575  001E                     _ADRESH	set	30
   576  000C                     _PIR1	set	12
   577  0005                     _PORTA	set	5
   578  0012                     _T2CON	set	18
   579  001F                     _ADCON0	set	31
   580  000B                     _INTCON	set	11
   581  0006                     _PORTB	set	6
   582  0007                     _PORTC	set	7
   583  0001                     _TMR0	set	1
   584  0094                     _SSPSTAT	set	148
   585  0091                     _SSPCON2	set	145
   586  0093                     _SSPADD	set	147
   587  0088                     _TRISD	set	136
   588  0092                     _PR2	set	146
   589  009F                     _ADCON1	set	159
   590  009E                     _ADRESL	set	158
   591  008C                     _PIE1	set	140
   592  0085                     _TRISA	set	133
   593  0086                     _TRISB	set	134
   594  0087                     _TRISC	set	135
   595  0081                     _OPTION_REG	set	129
   596  043C                     _TRISC4	set	1084
   597  043B                     _TRISC3	set	1083
   598                           
   599                           	psect	cinit
   600  0015                     start_initialization:	
   601                           ; #config settings
   602                           
   603  0015                     __initialization:
   604                           
   605                           ; Initialize objects allocated to BANK1
   606  0015  1383               	bcf	3,7	;select IRP bank0
   607  0016  30A9               	movlw	low (__pdataBANK1+9)
   608  0017  00FD               	movwf	btemp+-1
   609  0018  300F               	movlw	high __pidataBANK1
   610  0019  00FE               	movwf	btemp
   611  001A  30AC               	movlw	low __pidataBANK1
   612  001B  00FF               	movwf	btemp+1
   613  001C  30A0               	movlw	low __pdataBANK1
   614  001D  0084               	movwf	4
   615  001E  120A  158A  27F1  120A  118A  	fcall	init_ram0
   616                           
   617                           ; Initialize objects allocated to BANK0
   618  0023  3069               	movlw	low (__pdataBANK0+11)
   619  0024  00FD               	movwf	btemp+-1
   620  0025  300F               	movlw	high __pidataBANK0
   621  0026  00FE               	movwf	btemp
   622  0027  30B5               	movlw	low __pidataBANK0
   623  0028  00FF               	movwf	btemp+1
   624  0029  305E               	movlw	low __pdataBANK0
   625  002A  0084               	movwf	4
   626  002B  120A  158A  27F1  120A  118A  	fcall	init_ram0
   627                           
   628                           ; Clear objects allocated to BANK0
   629  0030  304C               	movlw	low __pbssBANK0
   630  0031  0084               	movwf	4
   631  0032  305E               	movlw	low (__pbssBANK0+18)
   632  0033  120A  158A  2789  120A  118A  	fcall	clear_ram0
   633  0038                     end_of_initialization:	
   634                           ;End of C runtime variable initialization code
   635                           
   636  0038                     __end_of__initialization:
   637  0038  0183               	clrf	3
   638  0039  120A  118A  2B34   	ljmp	_main	;jump to C main() function
   639                           
   640                           	psect	bssBANK0
   641  004C                     __pbssBANK0:
   642  004C                     ADC_IRQ_Handler@temp_rsum:
   643  004C                     	ds	2
   644  004E                     ADC_IRQ_Handler@heat_led_toggle:
   645  004E                     	ds	1
   646  004F                     ADC_IRQ_Handler@heat_led_count:
   647  004F                     	ds	1
   648  0050                     ADC_IRQ_Handler@temp_count:
   649  0050                     	ds	1
   650  0051                     TIMER1_IRQ_Handler@tst:
   651  0051                     	ds	1
   652  0052                     TIMER1_IRQ_Handler@temp_enter_counter:
   653  0052                     	ds	1
   654  0053                     TIMER1_IRQ_Handler@sig_blink_toggle:
   655  0053                     	ds	1
   656  0054                     TIMER1_IRQ_Handler@sig_blink_count:
   657  0054                     	ds	1
   658  0055                     TIMER1_IRQ_Handler@last_clicked_button:
   659  0055                     	ds	1
   660  0056                     TIMER1_IRQ_Handler@temp_reading_count:
   661  0056                     	ds	1
   662  0057                     TIMER1_IRQ_Handler@tim1_ovf_count:
   663  0057                     	ds	1
   664  0058                     TIMER2_IRQ_Handler@digit:
   665  0058                     	ds	1
   666  0059                     _cooler_state:
   667  0059                     	ds	1
   668  005A                     _heater_state:
   669  005A                     	ds	1
   670  005B                     _device_state:
   671  005B                     	ds	1
   672  005C                     _display_state:
   673  005C                     	ds	1
   674  005D                     _Current_Task:
   675  005D                     	ds	1
   676                           
   677                           	psect	dataBANK0
   678  005E                     __pdataBANK0:
   679  005E                     system_startup@F1177:
   680  005E                     	ds	6
   681  0064                     _average_temp:
   682  0064                     	ds	2
   683  0066                     _Seg_Val:
   684  0066                     	ds	1
   685  0067                     _desired_temp:
   686  0067                     	ds	1
   687  0068                     _display_mode:
   688  0068                     	ds	1
   689                           
   690                           	psect	dataBANK1
   691  00A0                     __pdataBANK1:
   692  00A0                     system_startup@F1179:
   693  00A0                     	ds	9
   694                           
   695                           	psect	inittext
   696  0FED                     init_fetch0:	
   697                           ;	Called with low address in FSR and high address in W
   698                           
   699  0FED  087E               	movf	btemp,w
   700  0FEE  008A               	movwf	10
   701  0FEF  087F               	movf	btemp+1,w
   702  0FF0  0082               	movwf	2
   703  0FF1                     init_ram0:	
   704                           ;Called with:
   705                           ;	high address of idata address in btemp 
   706                           ;	low address of idata address in btemp+1 
   707                           ;	low address of data in FSR
   708                           ;	high address + 1 of data in btemp-1
   709                           
   710  0FF1  120A  158A  27ED  120A  158A  	fcall	init_fetch0
   711  0FF6  0080               	movwf	0
   712  0FF7  0A84               	incf	4,f
   713  0FF8  0804               	movf	4,w
   714  0FF9  067D               	xorwf	btemp+-1,w
   715  0FFA  1903               	btfsc	3,2
   716  0FFB  3400               	retlw	0
   717  0FFC  0AFF               	incf	btemp+1,f
   718  0FFD  1903               	btfsc	3,2
   719  0FFE  0AFE               	incf	btemp,f
   720  0FFF  2FF1               	goto	init_ram0
   721                           
   722                           	psect	clrtext
   723  0F89                     clear_ram0:	
   724                           ;	Called with FSR containing the base address, and
   725                           ;	W with the last address+1
   726                           
   727  0F89  0064               	clrwdt	;clear the watchdog before getting into this loop
   728  0F8A                     clrloop0:
   729  0F8A  0180               	clrf	0	;clear RAM location pointed to by FSR
   730  0F8B  0A84               	incf	4,f	;increment pointer
   731  0F8C  0604               	xorwf	4,w	;XOR with final address
   732  0F8D  1903               	btfsc	3,2	;have we reached the end yet?
   733  0F8E  3400               	retlw	0	;all done for this memory range, return
   734  0F8F  0604               	xorwf	4,w	;XOR again to restore value
   735  0F90  2F8A               	goto	clrloop0	;do the next byte
   736                           
   737                           	psect	cstackBANK1
   738  00A9                     __pcstackBANK1:
   739  00A9                     ??_main:
   740                           
   741                           ; 1 bytes @ 0x0
   742  00A9                     	ds	2
   743  00AB                     _main$151:
   744                           
   745                           ; 2 bytes @ 0x2
   746  00AB                     	ds	2
   747  00AD                     main@val:
   748                           
   749                           ; 1 bytes @ 0x4
   750  00AD                     	ds	1
   751                           
   752                           	psect	cstackCOMMON
   753  0070                     __pcstackCOMMON:
   754  0070                     ?_I2C_Init:
   755  0070                     ?_ADC_Init:	
   756                           ; 1 bytes @ 0x0
   757                           
   758  0070                     ?_TIM1_Init:	
   759                           ; 1 bytes @ 0x0
   760                           
   761  0070                     ?_DisplayInit:	
   762                           ; 1 bytes @ 0x0
   763                           
   764  0070                     ?_system_startup:	
   765                           ; 1 bytes @ 0x0
   766                           
   767  0070                     ?_main:	
   768                           ; 1 bytes @ 0x0
   769                           
   770  0070                     ?_ADC_ClearFlag:	
   771                           ; 1 bytes @ 0x0
   772                           
   773  0070                     ?_ADC_EnableINT:	
   774                           ; 1 bytes @ 0x0
   775                           
   776  0070                     ?_ADC_StartConv_NB:	
   777                           ; 1 bytes @ 0x0
   778                           
   779  0070                     ?_WriteSegVal:	
   780                           ; 1 bytes @ 0x0
   781                           
   782  0070                     ?_TIMER2_IRQ_Handler:	
   783                           ; 1 bytes @ 0x0
   784                           
   785  0070                     ??_TIMER2_IRQ_Handler:	
   786                           ; 1 bytes @ 0x0
   787                           
   788  0070                     ?_TIMER1_IRQ_Handler:	
   789                           ; 1 bytes @ 0x0
   790                           
   791  0070                     ?_ADC_IRQ_Handler:	
   792                           ; 1 bytes @ 0x0
   793                           
   794  0070                     ?_ISR:	
   795                           ; 1 bytes @ 0x0
   796                           
   797  0070                     ?_TIMER2_SETUP_60HZ:	
   798                           ; 1 bytes @ 0x0
   799                           
   800  0070                     ?_I2C_Halt:	
   801                           ; 1 bytes @ 0x0
   802                           
   803  0070                     ?_I2C_Start:	
   804                           ; 1 bytes @ 0x0
   805                           
   806  0070                     ?_I2C_Stop:	
   807                           ; 1 bytes @ 0x0
   808                           
   809  0070                     ?_I2C_Restart:	
   810                           ; 1 bytes @ 0x0
   811                           
   812  0070                     ?_I2C_Transmit:	
   813                           ; 1 bytes @ 0x0
   814                           
   815  0070                     ?_I2C_Receive_NACK:	
   816                           ; 1 bytes @ 0x0
   817                           
   818  0070                     ?i1_ADC_StartConv_NB:	
   819                           ; 1 bytes @ 0x0
   820                           
   821  0070                     ??i1_ADC_StartConv_NB:	
   822                           ; 1 bytes @ 0x0
   823                           
   824  0070                     ?___awdiv:	
   825                           ; 1 bytes @ 0x0
   826                           
   827  0070                     ?___awmod:	
   828                           ; 2 bytes @ 0x0
   829                           
   830  0070                     ?___lwdiv:	
   831                           ; 2 bytes @ 0x0
   832                           
   833  0070                     ___awdiv@divisor:	
   834                           ; 2 bytes @ 0x0
   835                           
   836  0070                     ___awmod@divisor:	
   837                           ; 2 bytes @ 0x0
   838                           
   839  0070                     ___lwdiv@divisor:	
   840                           ; 2 bytes @ 0x0
   841                           
   842                           
   843                           ; 2 bytes @ 0x0
   844  0070                     	ds	2
   845  0072                     ___awdiv@dividend:
   846  0072                     ___awmod@dividend:	
   847                           ; 2 bytes @ 0x2
   848                           
   849  0072                     ___lwdiv@dividend:	
   850                           ; 2 bytes @ 0x2
   851                           
   852                           
   853                           ; 2 bytes @ 0x2
   854  0072                     	ds	2
   855  0074                     ??___awdiv:
   856  0074                     ??___awmod:	
   857                           ; 1 bytes @ 0x4
   858                           
   859  0074                     ??___lwdiv:	
   860                           ; 1 bytes @ 0x4
   861                           
   862  0074                     ___awdiv@counter:	
   863                           ; 1 bytes @ 0x4
   864                           
   865  0074                     ___awmod@counter:	
   866                           ; 1 bytes @ 0x4
   867                           
   868  0074                     ___lwdiv@quotient:	
   869                           ; 1 bytes @ 0x4
   870                           
   871                           
   872                           ; 2 bytes @ 0x4
   873  0074                     	ds	1
   874  0075                     ___awdiv@sign:
   875  0075                     ___awmod@sign:	
   876                           ; 1 bytes @ 0x5
   877                           
   878                           
   879                           ; 1 bytes @ 0x5
   880  0075                     	ds	1
   881  0076                     ___lwdiv@counter:
   882  0076                     ___awdiv@quotient:	
   883                           ; 1 bytes @ 0x6
   884                           
   885                           
   886                           ; 2 bytes @ 0x6
   887  0076                     	ds	1
   888  0077                     ??_ADC_IRQ_Handler:
   889                           
   890                           ; 1 bytes @ 0x7
   891  0077                     	ds	1
   892  0078                     ??_WriteSegVal:
   893                           
   894                           ; 1 bytes @ 0x8
   895  0078                     	ds	5
   896  007D                     WriteSegVal@newval:
   897                           
   898                           ; 1 bytes @ 0xD
   899  007D                     	ds	1
   900                           
   901                           	psect	cstackBANK0
   902  0020                     __pcstackBANK0:
   903  0020                     ??_TIMER1_IRQ_Handler:
   904                           
   905                           ; 1 bytes @ 0x0
   906  0020                     	ds	2
   907  0022                     ??_ISR:
   908                           
   909                           ; 1 bytes @ 0x2
   910  0022                     	ds	4
   911  0026                     ??_ADC_Init:
   912  0026                     ??_TIM1_Init:	
   913                           ; 1 bytes @ 0x6
   914                           
   915  0026                     ??_DisplayInit:	
   916                           ; 1 bytes @ 0x6
   917                           
   918  0026                     ??_ADC_ClearFlag:	
   919                           ; 1 bytes @ 0x6
   920                           
   921  0026                     ??_ADC_EnableINT:	
   922                           ; 1 bytes @ 0x6
   923                           
   924  0026                     ??_ADC_StartConv_NB:	
   925                           ; 1 bytes @ 0x6
   926                           
   927  0026                     ??_TIMER2_SETUP_60HZ:	
   928                           ; 1 bytes @ 0x6
   929                           
   930  0026                     ??_I2C_Halt:	
   931                           ; 1 bytes @ 0x6
   932                           
   933  0026                     ??_I2C_Start:	
   934                           ; 1 bytes @ 0x6
   935                           
   936  0026                     ??_I2C_Stop:	
   937                           ; 1 bytes @ 0x6
   938                           
   939  0026                     ??_I2C_Restart:	
   940                           ; 1 bytes @ 0x6
   941                           
   942  0026                     ??_I2C_Transmit:	
   943                           ; 1 bytes @ 0x6
   944                           
   945  0026                     ??_I2C_Receive_NACK:	
   946                           ; 1 bytes @ 0x6
   947                           
   948  0026                     ?___lldiv:	
   949                           ; 1 bytes @ 0x6
   950                           
   951  0026                     I2C_Transmit@bval:	
   952                           ; 4 bytes @ 0x6
   953                           
   954  0026                     I2C_Receive_NACK@temp:	
   955                           ; 1 bytes @ 0x6
   956                           
   957  0026                     ___lldiv@divisor:	
   958                           ; 1 bytes @ 0x6
   959                           
   960                           
   961                           ; 4 bytes @ 0x6
   962  0026                     	ds	1
   963  0027                     ?_eepByteWrite:
   964  0027                     ?_eepByteRead:	
   965                           ; 1 bytes @ 0x7
   966                           
   967  0027                     eepByteWrite@Addr:	
   968                           ; 2 bytes @ 0x7
   969                           
   970  0027                     eepByteRead@Addr:	
   971                           ; 2 bytes @ 0x7
   972                           
   973                           
   974                           ; 2 bytes @ 0x7
   975  0027                     	ds	2
   976  0029                     ??_eepByteRead:
   977  0029                     ??_eepByteWrite:	
   978                           ; 1 bytes @ 0x9
   979                           
   980                           
   981                           ; 1 bytes @ 0x9
   982  0029                     	ds	1
   983  002A                     ADC_Init@config_s_ptr:
   984  002A                     ___lldiv@dividend:	
   985                           ; 1 bytes @ 0xA
   986                           
   987                           
   988                           ; 4 bytes @ 0xA
   989  002A                     	ds	1
   990  002B                     eepByteWrite@bval:
   991  002B                     eepByteRead@temp:	
   992                           ; 1 bytes @ 0xB
   993                           
   994                           
   995                           ; 1 bytes @ 0xB
   996  002B                     	ds	1
   997  002C                     eepByteWrite@error_check:
   998  002C                     eepByteRead@error_check:	
   999                           ; 1 bytes @ 0xC
  1000                           
  1001                           
  1002                           ; 1 bytes @ 0xC
  1003  002C                     	ds	2
  1004  002E                     ??___lldiv:
  1005                           
  1006                           ; 1 bytes @ 0xE
  1007  002E                     	ds	1
  1008  002F                     ___lldiv@quotient:
  1009                           
  1010                           ; 4 bytes @ 0xF
  1011  002F                     	ds	4
  1012  0033                     ___lldiv@counter:
  1013                           
  1014                           ; 1 bytes @ 0x13
  1015  0033                     	ds	1
  1016  0034                     ??_I2C_Init:
  1017                           
  1018                           ; 1 bytes @ 0x14
  1019  0034                     	ds	4
  1020  0038                     I2C_Init@i2ch:
  1021                           
  1022                           ; 1 bytes @ 0x18
  1023  0038                     	ds	1
  1024  0039                     ??_system_startup:
  1025                           
  1026                           ; 1 bytes @ 0x19
  1027  0039                     	ds	4
  1028  003D                     system_startup@my_s:
  1029                           
  1030                           ; 6 bytes @ 0x1D
  1031  003D                     	ds	6
  1032  0043                     system_startup@my_i2c_s:
  1033                           
  1034                           ; 9 bytes @ 0x23
  1035  0043                     	ds	9
  1036                           
  1037                           	psect	maintext
  1038  0334                     __pmaintext:	
  1039 ;;
  1040 ;;Main: autosize = 0, tempsize = 2, incstack = 0, save=0
  1041 ;;
  1042 ;; *************** function _main *****************
  1043 ;; Defined at:
  1044 ;;		line 72 in file "src/main.c"
  1045 ;; Parameters:    Size  Location     Type
  1046 ;;		None
  1047 ;; Auto vars:     Size  Location     Type
  1048 ;;  val             1    4[BANK1 ] unsigned char 
  1049 ;; Return value:  Size  Location     Type
  1050 ;;                  1    wreg      void 
  1051 ;; Registers used:
  1052 ;;		wreg, fsr0l, fsr0h, status,2, status,0, btemp+1, pclath, cstack
  1053 ;; Tracked objects:
  1054 ;;		On entry : B00/0
  1055 ;;		On exit  : 0/0
  1056 ;;		Unchanged: 0/0
  1057 ;; Data sizes:     COMMON   BANK0   BANK1   BANK3   BANK2
  1058 ;;      Params:         0       0       0       0       0
  1059 ;;      Locals:         0       0       3       0       0
  1060 ;;      Temps:          0       0       2       0       0
  1061 ;;      Totals:         0       0       5       0       0
  1062 ;;Total ram usage:        5 bytes
  1063 ;; Hardware stack levels required when called:    7
  1064 ;; This function calls:
  1065 ;;		_eepByteRead
  1066 ;;		_eepByteWrite
  1067 ;;		_system_startup
  1068 ;; This function is called by:
  1069 ;;		Startup code after reset
  1070 ;; This function uses a non-reentrant model
  1071 ;;
  1072                           
  1073                           
  1074                           ;psect for function _main
  1075  0334                     _main:
  1076  0334                     l2519:	
  1077                           ;incstack = 0
  1078                           ; Regs used in _main: [wreg-fsr0h+status,2+status,0+btemp+1+pclath+cstack]
  1079                           
  1080                           
  1081                           ;src/main.c: 75:  system_startup();
  1082  0334  120A  118A  24D9  120A  118A  	fcall	_system_startup
  1083  0339                     l2521:
  1084                           
  1085                           ;src/main.c: 80:     {;src/main.c: 82:        if ( Current_Task == 2 )
  1086  0339  3002               	movlw	2
  1087  033A  1283               	bcf	3,5	;RP0=0, select bank0
  1088  033B  1303               	bcf	3,6	;RP1=0, select bank0
  1089  033C  065D               	xorwf	_Current_Task,w	;volatile
  1090  033D  1D03               	btfss	3,2
  1091  033E  2B40               	goto	u2571
  1092  033F  2B41               	goto	u2570
  1093  0340                     u2571:
  1094  0340  2B81               	goto	l2543
  1095  0341                     u2570:
  1096  0341                     l2523:
  1097                           
  1098                           ;src/main.c: 83:         {;src/main.c: 85:            ADCON0 |= ( 1 << 0x0 );
  1099  0341  141F               	bsf	31,0	;volatile
  1100  0342                     l2525:
  1101                           
  1102                           ;src/main.c: 87:             display_state = 1 ;
  1103  0342  3001               	movlw	1
  1104  0343  00FF               	movwf	btemp+1
  1105  0344  087F               	movf	btemp+1,w
  1106  0345  00DC               	movwf	_display_state	;volatile
  1107                           
  1108                           ;src/main.c: 88:             device_state = 1 ;
  1109  0346  3001               	movlw	1
  1110  0347  00FF               	movwf	btemp+1
  1111  0348  087F               	movf	btemp+1,w
  1112  0349  00DB               	movwf	_device_state	;volatile
  1113                           
  1114                           ;src/main.c: 89:             display_mode = 1 ;
  1115  034A  3001               	movlw	1
  1116  034B  00FF               	movwf	btemp+1
  1117  034C  087F               	movf	btemp+1,w
  1118  034D  00E8               	movwf	_display_mode	;volatile
  1119  034E                     l2527:
  1120                           
  1121                           ;src/main.c: 90:             T2CON |= ( 1 << 0x2 );
  1122  034E  1512               	bsf	18,2	;volatile
  1123  034F                     l2529:
  1124                           
  1125                           ;src/main.c: 92:            uint8_t val = eepByteRead( 0X0000 );
  1126  034F  3000               	movlw	0
  1127  0350  00A7               	movwf	eepByteRead@Addr
  1128  0351  00A8               	movwf	eepByteRead@Addr+1
  1129  0352  120A  118A  246A  120A  118A  	fcall	_eepByteRead
  1130  0357  1283               	bcf	3,5	;RP0=0, select bank0
  1131  0358  1303               	bcf	3,6	;RP1=0, select bank0
  1132  0359  0827               	movf	?_eepByteRead,w
  1133  035A  00FF               	movwf	btemp+1
  1134  035B  087F               	movf	btemp+1,w
  1135  035C  1683               	bsf	3,5	;RP0=1, select bank1
  1136  035D  1303               	bcf	3,6	;RP1=0, select bank1
  1137  035E  00AD               	movwf	main@val^(0+128)
  1138  035F                     l2531:
  1139                           
  1140                           ;src/main.c: 94:            desired_temp = ( val >= 35 && val <= 75 ) ? ( val ) : ( 60 )
      +                          ;
  1141  035F  3023               	movlw	35
  1142  0360  022D               	subwf	main@val^(0+128),w
  1143  0361  1C03               	skipc
  1144  0362  2B64               	goto	u2581
  1145  0363  2B65               	goto	u2580
  1146  0364                     u2581:
  1147  0364  2B6B               	goto	l2535
  1148  0365                     u2580:
  1149  0365                     l2533:
  1150  0365  304C               	movlw	76
  1151  0366  022D               	subwf	main@val^(0+128),w
  1152  0367  1C03               	skipc
  1153  0368  2B6A               	goto	u2591
  1154  0369  2B6B               	goto	u2590
  1155  036A                     u2591:
  1156  036A  2B70               	goto	l2537
  1157  036B                     u2590:
  1158  036B                     l2535:
  1159  036B  303C               	movlw	60
  1160  036C  00AB               	movwf	_main$151^(0+128)
  1161  036D  3000               	movlw	0
  1162  036E  00AC               	movwf	(_main$151^(0+128)+1)
  1163  036F  2B77               	goto	l2539
  1164  0370                     l2537:
  1165  0370  082D               	movf	main@val^(0+128),w
  1166  0371  00A9               	movwf	??_main^(0+128)
  1167  0372  01AA               	clrf	(??_main^(0+128)+1)
  1168  0373  0829               	movf	??_main^(0+128),w
  1169  0374  00AB               	movwf	_main$151^(0+128)
  1170  0375  082A               	movf	(??_main+1)^(0+128),w
  1171  0376  00AC               	movwf	(_main$151+1)^(0+128)
  1172  0377                     l2539:
  1173  0377  082B               	movf	_main$151^(0+128),w
  1174  0378  00FF               	movwf	btemp+1
  1175  0379  087F               	movf	btemp+1,w
  1176  037A  1283               	bcf	3,5	;RP0=0, select bank0
  1177  037B  1303               	bcf	3,6	;RP1=0, select bank0
  1178  037C  00E7               	movwf	_desired_temp	;volatile
  1179  037D                     l2541:
  1180                           
  1181                           ;src/main.c: 95:            Current_Task = 0 ;
  1182  037D  1283               	bcf	3,5	;RP0=0, select bank0
  1183  037E  1303               	bcf	3,6	;RP1=0, select bank0
  1184  037F  01DD               	clrf	_Current_Task	;volatile
  1185                           
  1186                           ;src/main.c: 98:         }
  1187  0380  2BCE               	goto	l70
  1188  0381                     l2543:
  1189  0381  035D               	decf	_Current_Task,w	;volatile
  1190  0382  1D03               	btfss	3,2
  1191  0383  2B85               	goto	u2601
  1192  0384  2B86               	goto	u2600
  1193  0385                     u2601:
  1194  0385  2BBE               	goto	l2571
  1195  0386                     u2600:
  1196  0386                     l2545:
  1197                           
  1198                           ;src/main.c: 100:         {;src/main.c: 102:             display_state = 0 ;
  1199  0386  01DC               	clrf	_display_state	;volatile
  1200  0387                     l2547:
  1201                           
  1202                           ;src/main.c: 103:             T2CON&= ~ ( 1 << 0x2 ); PORTA &= ~( 1 << 5 ); PORTA &= ~ (
      +                           1 << 4 );
  1203  0387  30FB               	movlw	251
  1204  0388  00FF               	movwf	btemp+1
  1205  0389  087F               	movf	btemp+1,w
  1206  038A  0592               	andwf	18,f	;volatile
  1207  038B                     l2549:
  1208  038B  30DF               	movlw	223
  1209  038C  00FF               	movwf	btemp+1
  1210  038D  087F               	movf	btemp+1,w
  1211  038E  0585               	andwf	5,f	;volatile
  1212  038F                     l2551:
  1213  038F  30EF               	movlw	239
  1214  0390  00FF               	movwf	btemp+1
  1215  0391  087F               	movf	btemp+1,w
  1216  0392  0585               	andwf	5,f	;volatile
  1217  0393                     l2553:
  1218                           
  1219                           ;src/main.c: 105:             ADCON0 &= ~ ( 1 << 0x0 );
  1220  0393  30FE               	movlw	254
  1221  0394  00FF               	movwf	btemp+1
  1222  0395  087F               	movf	btemp+1,w
  1223  0396  059F               	andwf	31,f	;volatile
  1224                           
  1225                           ;src/main.c: 107:             PIR1 = 0;
  1226  0397  018C               	clrf	12	;volatile
  1227  0398                     l2555:
  1228                           
  1229                           ;src/main.c: 109:           eepByteWrite( desired_temp , 0x0000 );
  1230  0398  3000               	movlw	0
  1231  0399  00A7               	movwf	eepByteWrite@Addr
  1232  039A  00A8               	movwf	eepByteWrite@Addr+1
  1233  039B  0867               	movf	_desired_temp,w	;volatile
  1234  039C  120A  118A  26F2  120A  118A  	fcall	_eepByteWrite
  1235  03A1                     l2557:
  1236                           
  1237                           ;src/main.c: 113:             if ( heater_state == 1 )
  1238  03A1  1283               	bcf	3,5	;RP0=0, select bank0
  1239  03A2  1303               	bcf	3,6	;RP1=0, select bank0
  1240  03A3  035A               	decf	_heater_state,w	;volatile
  1241  03A4  1D03               	btfss	3,2
  1242  03A5  2BA7               	goto	u2611
  1243  03A6  2BA8               	goto	u2610
  1244  03A7                     u2611:
  1245  03A7  2BAD               	goto	l2563
  1246  03A8                     u2610:
  1247  03A8                     l2559:
  1248                           
  1249                           ;src/main.c: 114:             {;src/main.c: 115:                 PORTC &= ~( 1 << 5 );
  1250  03A8  30DF               	movlw	223
  1251  03A9  00FF               	movwf	btemp+1
  1252  03AA  087F               	movf	btemp+1,w
  1253  03AB  0587               	andwf	7,f	;volatile
  1254  03AC                     l2561:
  1255                           
  1256                           ;src/main.c: 116:                 heater_state = 0 ;
  1257  03AC  01DA               	clrf	_heater_state	;volatile
  1258  03AD                     l2563:
  1259                           
  1260                           ;src/main.c: 118:             if ( cooler_state == 1 )
  1261  03AD  0359               	decf	_cooler_state,w	;volatile
  1262  03AE  1D03               	btfss	3,2
  1263  03AF  2BB1               	goto	u2621
  1264  03B0  2BB2               	goto	u2620
  1265  03B1                     u2621:
  1266  03B1  2BB7               	goto	l2569
  1267  03B2                     u2620:
  1268  03B2                     l2565:
  1269                           
  1270                           ;src/main.c: 119:             {;src/main.c: 120:                 PORTC &= ~( 1 << 2 );
  1271  03B2  30FB               	movlw	251
  1272  03B3  00FF               	movwf	btemp+1
  1273  03B4  087F               	movf	btemp+1,w
  1274  03B5  0587               	andwf	7,f	;volatile
  1275  03B6                     l2567:
  1276                           
  1277                           ;src/main.c: 121:                 cooler_state = 0 ;
  1278  03B6  01D9               	clrf	_cooler_state	;volatile
  1279  03B7                     l2569:
  1280                           
  1281                           ;src/main.c: 124:           PORTB &= ~ ( 1 << 7 );
  1282  03B7  307F               	movlw	127
  1283  03B8  00FF               	movwf	btemp+1
  1284  03B9  087F               	movf	btemp+1,w
  1285  03BA  0586               	andwf	6,f	;volatile
  1286                           
  1287                           ;src/main.c: 125:             device_state = 0 ;
  1288  03BB  01DB               	clrf	_device_state	;volatile
  1289                           
  1290                           ;src/main.c: 126:             Current_Task = 0 ;
  1291  03BC  01DD               	clrf	_Current_Task	;volatile
  1292                           
  1293                           ;src/main.c: 131:         }
  1294  03BD  2BCE               	goto	l70
  1295  03BE                     l2571:
  1296  03BE  3003               	movlw	3
  1297  03BF  065D               	xorwf	_Current_Task,w	;volatile
  1298  03C0  1D03               	btfss	3,2
  1299  03C1  2BC3               	goto	u2631
  1300  03C2  2BC4               	goto	u2630
  1301  03C3                     u2631:
  1302  03C3  2BCE               	goto	l70
  1303  03C4                     u2630:
  1304  03C4                     l2573:
  1305                           
  1306                           ;src/main.c: 133:         {;src/main.c: 134:              eepByteWrite( desired_temp , 0
      +                          x0000 );
  1307  03C4  3000               	movlw	0
  1308  03C5  00A7               	movwf	eepByteWrite@Addr
  1309  03C6  00A8               	movwf	eepByteWrite@Addr+1
  1310  03C7  0867               	movf	_desired_temp,w	;volatile
  1311  03C8  120A  118A  26F2  120A  118A  	fcall	_eepByteWrite
  1312  03CD  2B7D               	goto	l2541
  1313  03CE                     l70:
  1314  03CE  0064               	clrwdt	;# 
  1315  03CF  2B39               	goto	l2521
  1316  03D0  120A  118A  2812   	ljmp	start
  1317  03D3                     __end_of_main:
  1318                           
  1319                           	psect	text1
  1320  04D9                     __ptext1:	
  1321 ;; *************** function _system_startup *****************
  1322 ;; Defined at:
  1323 ;;		line 7 in file "src/main.c"
  1324 ;; Parameters:    Size  Location     Type
  1325 ;;		None
  1326 ;; Auto vars:     Size  Location     Type
  1327 ;;  my_i2c_s        9   35[BANK0 ] struct .
  1328 ;;  my_s            6   29[BANK0 ] struct .
  1329 ;; Return value:  Size  Location     Type
  1330 ;;                  1    wreg      void 
  1331 ;; Registers used:
  1332 ;;		wreg, fsr0l, fsr0h, status,2, status,0, btemp+1, pclath, cstack
  1333 ;; Tracked objects:
  1334 ;;		On entry : 0/0
  1335 ;;		On exit  : 0/0
  1336 ;;		Unchanged: 0/0
  1337 ;; Data sizes:     COMMON   BANK0   BANK1   BANK3   BANK2
  1338 ;;      Params:         0       0       0       0       0
  1339 ;;      Locals:         0      15       0       0       0
  1340 ;;      Temps:          0       4       0       0       0
  1341 ;;      Totals:         0      19       0       0       0
  1342 ;;Total ram usage:       19 bytes
  1343 ;; Hardware stack levels used:    1
  1344 ;; Hardware stack levels required when called:    6
  1345 ;; This function calls:
  1346 ;;		_ADC_Init
  1347 ;;		_DisplayInit
  1348 ;;		_I2C_Init
  1349 ;;		_TIM1_Init
  1350 ;; This function is called by:
  1351 ;;		_main
  1352 ;; This function uses a non-reentrant model
  1353 ;;
  1354                           
  1355                           
  1356                           ;psect for function _system_startup
  1357  04D9                     _system_startup:
  1358  04D9                     l2439:	
  1359                           ;incstack = 0
  1360                           ; Regs used in _system_startup: [wreg-fsr0h+status,2+status,0+btemp+1+pclath+cstack]
  1361                           
  1362                           
  1363                           ;src/main.c: 12:     OPTION_REG = 0B100 ;
  1364  04D9  3004               	movlw	4
  1365  04DA  1683               	bsf	3,5	;RP0=1, select bank1
  1366  04DB  1303               	bcf	3,6	;RP1=0, select bank1
  1367  04DC  0081               	movwf	1	;volatile
  1368  04DD                     l2441:
  1369                           
  1370                           ;src/main.c: 14:     TMR0 = 0 ;
  1371  04DD  1283               	bcf	3,5	;RP0=0, select bank0
  1372  04DE  1303               	bcf	3,6	;RP1=0, select bank0
  1373  04DF  0181               	clrf	1	;volatile
  1374  04E0                     l2443:
  1375                           
  1376                           ;src/main.c: 16:     OPTION_REG = 0B100 | ( 1 << 0x0 );
  1377  04E0  3005               	movlw	5
  1378  04E1  1683               	bsf	3,5	;RP0=1, select bank1
  1379  04E2  1303               	bcf	3,6	;RP1=0, select bank1
  1380  04E3  0081               	movwf	1	;volatile
  1381  04E4  0064               	clrwdt	;# 
  1382  04E5                     l2445:
  1383                           
  1384                           ;src/main.c: 22:      ADC_Config_S my_s = {
  1385  04E5  303D               	movlw	system_startup@my_s& (0+255)
  1386  04E6  0084               	movwf	4
  1387  04E7  1283               	bcf	3,5	;RP0=0, select bank0
  1388  04E8  1303               	bcf	3,6	;RP1=0, select bank0
  1389  04E9  085E               	movf	system_startup@F1177,w
  1390  04EA  1383               	bcf	3,7	;select IRP bank0
  1391  04EB  0080               	movwf	0
  1392  04EC  0A84               	incf	4,f
  1393  04ED  085F               	movf	system_startup@F1177+1,w
  1394  04EE  0080               	movwf	0
  1395  04EF  0A84               	incf	4,f
  1396  04F0  0860               	movf	system_startup@F1177+2,w
  1397  04F1  0080               	movwf	0
  1398  04F2  0A84               	incf	4,f
  1399  04F3  0861               	movf	system_startup@F1177+3,w
  1400  04F4  0080               	movwf	0
  1401  04F5  0A84               	incf	4,f
  1402  04F6  0862               	movf	system_startup@F1177+4,w
  1403  04F7  0080               	movwf	0
  1404  04F8  0A84               	incf	4,f
  1405  04F9  0863               	movf	system_startup@F1177+5,w
  1406  04FA  0080               	movwf	0
  1407  04FB                     l2447:
  1408                           
  1409                           ;src/main.c: 33:     I2C_Config_S my_i2c_s = {
  1410  04FB  3043               	movlw	system_startup@my_i2c_s& (0+255)
  1411  04FC  0084               	movwf	4
  1412  04FD  30A0               	movlw	low system_startup@F1179
  1413  04FE  00B9               	movwf	??_system_startup
  1414  04FF  0804               	movf	4,w
  1415  0500  00BA               	movwf	??_system_startup+1
  1416  0501  3009               	movlw	9
  1417  0502  00BB               	movwf	??_system_startup+2
  1418  0503                     u2520:
  1419  0503  0839               	movf	??_system_startup,w
  1420  0504  0084               	movwf	4
  1421  0505  1383               	bcf	3,7	;select IRP bank1
  1422  0506  0800               	movf	0,w
  1423  0507  00BC               	movwf	??_system_startup+3
  1424  0508  0AB9               	incf	??_system_startup,f
  1425  0509  083A               	movf	??_system_startup+1,w
  1426  050A  0084               	movwf	4
  1427  050B  083C               	movf	??_system_startup+3,w
  1428  050C  0080               	movwf	0
  1429  050D  0ABA               	incf	??_system_startup+1,f
  1430  050E  0BBB               	decfsz	??_system_startup+2,f
  1431  050F  2D03               	goto	u2520
  1432  0510                     l2449:
  1433                           
  1434                           ;src/main.c: 43:     PORTC &= ~ ( ( 1 << 5 ) | ( 1 << 2 ) );
  1435  0510  30DB               	movlw	219
  1436  0511  00FF               	movwf	btemp+1
  1437  0512  087F               	movf	btemp+1,w
  1438  0513  0587               	andwf	7,f	;volatile
  1439  0514                     l2451:
  1440                           
  1441                           ;src/main.c: 44:     TRISC &= ~ ( ( 1 << 5 ) | ( 1 << 2 ) );
  1442  0514  30DB               	movlw	219
  1443  0515  00FF               	movwf	btemp+1
  1444  0516  087F               	movf	btemp+1,w
  1445  0517  1683               	bsf	3,5	;RP0=1, select bank1
  1446  0518  1303               	bcf	3,6	;RP1=0, select bank1
  1447  0519  0587               	andwf	7,f	;volatile
  1448  051A                     l2453:
  1449                           
  1450                           ;src/main.c: 47:     TRISB |= ( 1 << 3 );
  1451  051A  1586               	bsf	6,3	;volatile
  1452  051B                     l2455:
  1453                           
  1454                           ;src/main.c: 48:     TRISB |= ( 1 << 4 );
  1455  051B  1606               	bsf	6,4	;volatile
  1456  051C                     l2457:
  1457                           
  1458                           ;src/main.c: 49:     TRISB |= ( 1 << 5 );
  1459  051C  1686               	bsf	6,5	;volatile
  1460  051D                     l2459:
  1461                           
  1462                           ;src/main.c: 51:     TRISA = 0XFF ;
  1463  051D  30FF               	movlw	255
  1464  051E  0085               	movwf	5	;volatile
  1465  051F                     l2461:
  1466                           
  1467                           ;src/main.c: 52:     TRISB&= ~ ( 1 << 7 ); PORTB&= ~ ( 1 << 7 );
  1468  051F  307F               	movlw	127
  1469  0520  00FF               	movwf	btemp+1
  1470  0521  087F               	movf	btemp+1,w
  1471  0522  0586               	andwf	6,f	;volatile
  1472  0523                     l2463:
  1473  0523  307F               	movlw	127
  1474  0524  00FF               	movwf	btemp+1
  1475  0525  087F               	movf	btemp+1,w
  1476  0526  1283               	bcf	3,5	;RP0=0, select bank0
  1477  0527  1303               	bcf	3,6	;RP1=0, select bank0
  1478  0528  0586               	andwf	6,f	;volatile
  1479  0529                     l2465:
  1480                           
  1481                           ;src/main.c: 54:     I2C_Init( &my_i2c_s );
  1482  0529  3043               	movlw	(low (system_startup@my_i2c_s| 0))& (0+255)
  1483  052A  120A  118A  2276  120A  118A  	fcall	_I2C_Init
  1484  052F                     l2467:
  1485                           
  1486                           ;src/main.c: 57:     ADC_Init( &my_s );
  1487  052F  303D               	movlw	(low (system_startup@my_s| 0))& (0+255)
  1488  0530  120A  118A  23D3  120A  118A  	fcall	_ADC_Init
  1489  0535                     l2469:
  1490                           
  1491                           ;src/main.c: 58:     TIM1_Init();
  1492  0535  120A  158A  27DD  120A  118A  	fcall	_TIM1_Init
  1493  053A                     l2471:
  1494                           
  1495                           ;src/main.c: 59:     DisplayInit() ;
  1496  053A  120A  118A  27BA  120A  118A  	fcall	_DisplayInit
  1497  053F                     l2473:
  1498                           
  1499                           ;src/main.c: 62:     INTCON |= ( 1 << 0x6 );
  1500  053F  170B               	bsf	11,6	;volatile
  1501  0540                     l2475:
  1502                           
  1503                           ;src/main.c: 64:     INTCON |= ( 1 << 0x7 );
  1504  0540  178B               	bsf	11,7	;volatile
  1505  0541                     l57:
  1506  0541  0008               	return
  1507  0542                     __end_of_system_startup:
  1508                           
  1509                           	psect	text2
  1510  0FDD                     __ptext2:	
  1511 ;; *************** function _TIM1_Init *****************
  1512 ;; Defined at:
  1513 ;;		line 28 in file "Drivers/src/pic_tim1.c"
  1514 ;; Parameters:    Size  Location     Type
  1515 ;;		None
  1516 ;; Auto vars:     Size  Location     Type
  1517 ;;		None
  1518 ;; Return value:  Size  Location     Type
  1519 ;;                  1    wreg      void 
  1520 ;; Registers used:
  1521 ;;		wreg, status,2, status,0, btemp+1
  1522 ;; Tracked objects:
  1523 ;;		On entry : 0/0
  1524 ;;		On exit  : 0/0
  1525 ;;		Unchanged: 0/0
  1526 ;; Data sizes:     COMMON   BANK0   BANK1   BANK3   BANK2
  1527 ;;      Params:         0       0       0       0       0
  1528 ;;      Locals:         0       0       0       0       0
  1529 ;;      Temps:          0       0       0       0       0
  1530 ;;      Totals:         0       0       0       0       0
  1531 ;;Total ram usage:        0 bytes
  1532 ;; Hardware stack levels used:    1
  1533 ;; Hardware stack levels required when called:    4
  1534 ;; This function calls:
  1535 ;;		Nothing
  1536 ;; This function is called by:
  1537 ;;		_system_startup
  1538 ;; This function uses a non-reentrant model
  1539 ;;
  1540                           
  1541                           
  1542                           ;psect for function _TIM1_Init
  1543  0FDD                     _TIM1_Init:
  1544  0FDD                     l2373:	
  1545                           ;incstack = 0
  1546                           ; Regs used in _TIM1_Init: [wreg+status,2+status,0+btemp+1]
  1547                           
  1548                           
  1549                           ;Drivers/src/pic_tim1.c: 32:     PIR1 &= ~ ( 1 << 0x0 );
  1550  0FDD  30FE               	movlw	254
  1551  0FDE  00FF               	movwf	btemp+1
  1552  0FDF  087F               	movf	btemp+1,w
  1553  0FE0  1283               	bcf	3,5	;RP0=0, select bank0
  1554  0FE1  1303               	bcf	3,6	;RP1=0, select bank0
  1555  0FE2  058C               	andwf	12,f	;volatile
  1556  0FE3                     l2375:
  1557                           
  1558                           ;Drivers/src/pic_tim1.c: 34:     PIE1 |= ( 1 << 0x0 );
  1559  0FE3  1683               	bsf	3,5	;RP0=1, select bank1
  1560  0FE4  1303               	bcf	3,6	;RP1=0, select bank1
  1561  0FE5  140C               	bsf	12,0	;volatile
  1562  0FE6                     l2377:
  1563                           
  1564                           ;Drivers/src/pic_tim1.c: 36:     TMR1L = 0 ;
  1565  0FE6  1283               	bcf	3,5	;RP0=0, select bank0
  1566  0FE7  1303               	bcf	3,6	;RP1=0, select bank0
  1567  0FE8  018E               	clrf	14	;volatile
  1568  0FE9                     l2379:
  1569                           
  1570                           ;Drivers/src/pic_tim1.c: 37:     TMR1H = 0 ;
  1571  0FE9  018F               	clrf	15	;volatile
  1572  0FEA                     l2381:
  1573                           
  1574                           ;Drivers/src/pic_tim1.c: 39:     T1CON = (( 0B00 << 0x4 ) |
  1575  0FEA  300D               	movlw	13
  1576  0FEB  0090               	movwf	16	;volatile
  1577  0FEC                     l277:
  1578  0FEC  0008               	return
  1579  0FED                     __end_of_TIM1_Init:
  1580                           
  1581                           	psect	text3
  1582  0276                     __ptext3:	
  1583 ;; *************** function _I2C_Init *****************
  1584 ;; Defined at:
  1585 ;;		line 34 in file "Drivers/src/pic_i2c.c"
  1586 ;; Parameters:    Size  Location     Type
  1587 ;;  i2ch            1    wreg     PTR struct .
  1588 ;;		 -> system_startup@my_i2c_s(9), 
  1589 ;; Auto vars:     Size  Location     Type
  1590 ;;  i2ch            1   24[BANK0 ] PTR struct .
  1591 ;;		 -> system_startup@my_i2c_s(9), 
  1592 ;; Return value:  Size  Location     Type
  1593 ;;                  1    wreg      char 
  1594 ;; Registers used:
  1595 ;;		wreg, fsr0l, fsr0h, status,2, status,0, btemp+1, pclath, cstack
  1596 ;; Tracked objects:
  1597 ;;		On entry : 0/0
  1598 ;;		On exit  : 0/0
  1599 ;;		Unchanged: 0/0
  1600 ;; Data sizes:     COMMON   BANK0   BANK1   BANK3   BANK2
  1601 ;;      Params:         0       0       0       0       0
  1602 ;;      Locals:         0       1       0       0       0
  1603 ;;      Temps:          0       4       0       0       0
  1604 ;;      Totals:         0       5       0       0       0
  1605 ;;Total ram usage:        5 bytes
  1606 ;; Hardware stack levels used:    1
  1607 ;; Hardware stack levels required when called:    5
  1608 ;; This function calls:
  1609 ;;		___lldiv
  1610 ;; This function is called by:
  1611 ;;		_system_startup
  1612 ;; This function uses a non-reentrant model
  1613 ;;
  1614                           
  1615                           
  1616                           ;psect for function _I2C_Init
  1617  0276                     _I2C_Init:
  1618                           
  1619                           ;incstack = 0
  1620                           ; Regs used in _I2C_Init: [wreg-fsr0h+status,2+status,0+btemp+1+pclath+cstack]
  1621                           ;I2C_Init@i2ch stored from wreg
  1622  0276  1283               	bcf	3,5	;RP0=0, select bank0
  1623  0277  1303               	bcf	3,6	;RP1=0, select bank0
  1624  0278  00B8               	movwf	I2C_Init@i2ch
  1625  0279                     l2305:
  1626                           
  1627                           ;Drivers/src/pic_i2c.c: 34: int8_t I2C_Init ( I2C_Config_S* i2ch );Drivers/src/pic_i2c.c
      +                          : 35: {;Drivers/src/pic_i2c.c: 38:     if ( !((i2ch->I2C_mode == I2C_MODE_SLAVE_ADDR10_I
      +                          NTEN )||
  1628  0279  0838               	movf	I2C_Init@i2ch,w
  1629  027A  0084               	movwf	4
  1630  027B  300F               	movlw	15
  1631  027C  1383               	bcf	3,7	;select IRP bank0
  1632  027D  0600               	xorwf	0,w
  1633  027E  1903               	btfsc	3,2
  1634  027F  2A81               	goto	u2271
  1635  0280  2A82               	goto	u2270
  1636  0281                     u2271:
  1637  0281  2AAA               	goto	l2317
  1638  0282                     u2270:
  1639  0282                     l2307:
  1640  0282  0838               	movf	I2C_Init@i2ch,w
  1641  0283  0084               	movwf	4
  1642  0284  300E               	movlw	14
  1643  0285  0600               	xorwf	0,w
  1644  0286  1903               	btfsc	3,2
  1645  0287  2A89               	goto	u2281
  1646  0288  2A8A               	goto	u2280
  1647  0289                     u2281:
  1648  0289  2AAA               	goto	l2317
  1649  028A                     u2280:
  1650  028A                     l2309:
  1651  028A  0838               	movf	I2C_Init@i2ch,w
  1652  028B  0084               	movwf	4
  1653  028C  300B               	movlw	11
  1654  028D  0600               	xorwf	0,w
  1655  028E  1903               	btfsc	3,2
  1656  028F  2A91               	goto	u2291
  1657  0290  2A92               	goto	u2290
  1658  0291                     u2291:
  1659  0291  2AAA               	goto	l2317
  1660  0292                     u2290:
  1661  0292                     l2311:
  1662  0292  0838               	movf	I2C_Init@i2ch,w
  1663  0293  0084               	movwf	4
  1664  0294  3008               	movlw	8
  1665  0295  0600               	xorwf	0,w
  1666  0296  1903               	btfsc	3,2
  1667  0297  2A99               	goto	u2301
  1668  0298  2A9A               	goto	u2300
  1669  0299                     u2301:
  1670  0299  2AAA               	goto	l2317
  1671  029A                     u2300:
  1672  029A                     l2313:
  1673  029A  0838               	movf	I2C_Init@i2ch,w
  1674  029B  0084               	movwf	4
  1675  029C  3007               	movlw	7
  1676  029D  0600               	xorwf	0,w
  1677  029E  1903               	btfsc	3,2
  1678  029F  2AA1               	goto	u2311
  1679  02A0  2AA2               	goto	u2310
  1680  02A1                     u2311:
  1681  02A1  2AAA               	goto	l2317
  1682  02A2                     u2310:
  1683  02A2                     l2315:
  1684  02A2  0838               	movf	I2C_Init@i2ch,w
  1685  02A3  0084               	movwf	4
  1686  02A4  3006               	movlw	6
  1687  02A5  0600               	xorwf	0,w
  1688  02A6  1D03               	btfss	3,2
  1689  02A7  2AA9               	goto	u2321
  1690  02A8  2AAA               	goto	u2320
  1691  02A9                     u2321:
  1692  02A9  2B33               	goto	l309
  1693  02AA                     u2320:
  1694  02AA                     l2317:
  1695  02AA  0838               	movf	I2C_Init@i2ch,w
  1696  02AB  3E04               	addlw	4
  1697  02AC  0084               	movwf	4
  1698  02AD  0800               	movf	0,w
  1699  02AE  00B4               	movwf	??_I2C_Init
  1700  02AF  0A84               	incf	4,f
  1701  02B0  0800               	movf	0,w
  1702  02B1  00B5               	movwf	??_I2C_Init+1
  1703  02B2  0A84               	incf	4,f
  1704  02B3  0800               	movf	0,w
  1705  02B4  00B6               	movwf	??_I2C_Init+2
  1706  02B5  0A84               	incf	4,f
  1707  02B6  0800               	movf	0,w
  1708  02B7  00B7               	movwf	??_I2C_Init+3
  1709  02B8  0837               	movf	??_I2C_Init+3,w
  1710  02B9  1D03               	btfss	3,2
  1711  02BA  2ACA               	goto	u2331
  1712  02BB  300F               	movlw	15
  1713  02BC  0236               	subwf	??_I2C_Init+2,w
  1714  02BD  1D03               	skipz
  1715  02BE  2AC7               	goto	u2333
  1716  02BF  3042               	movlw	66
  1717  02C0  0235               	subwf	??_I2C_Init+1,w
  1718  02C1  1D03               	skipz
  1719  02C2  2AC7               	goto	u2333
  1720  02C3  3041               	movlw	65
  1721  02C4  0234               	subwf	??_I2C_Init,w
  1722  02C5  1D03               	skipz
  1723  02C6  2AC7               	goto	u2333
  1724  02C7                     u2333:
  1725  02C7  1803               	btfsc	3,0
  1726  02C8  2ACA               	goto	u2331
  1727  02C9  2ACB               	goto	u2330
  1728  02CA                     u2331:
  1729  02CA  2B33               	goto	l309
  1730  02CB                     u2330:
  1731  02CB                     l2319:
  1732  02CB  0A38               	incf	I2C_Init@i2ch,w
  1733  02CC  0084               	movwf	4
  1734  02CD  3080               	movlw	128
  1735  02CE  0200               	subwf	0,w
  1736  02CF  1C03               	skipc
  1737  02D0  2AD2               	goto	u2341
  1738  02D1  2AD3               	goto	u2340
  1739  02D2                     u2341:
  1740  02D2  2AD4               	goto	l2321
  1741  02D3                     u2340:
  1742  02D3  2B33               	goto	l309
  1743  02D4                     l2321:
  1744                           
  1745                           ;Drivers/src/pic_i2c.c: 51:     if ( i2ch->I2C_Int_Enable )
  1746  02D4  0838               	movf	I2C_Init@i2ch,w
  1747  02D5  3E08               	addlw	8
  1748  02D6  0084               	movwf	4
  1749  02D7  0800               	movf	0,w
  1750  02D8  1903               	btfsc	3,2
  1751  02D9  2ADB               	goto	u2351
  1752  02DA  2ADC               	goto	u2350
  1753  02DB                     u2351:
  1754  02DB  2AE3               	goto	l2327
  1755  02DC                     u2350:
  1756  02DC                     l2323:
  1757                           
  1758                           ;Drivers/src/pic_i2c.c: 52:     {;Drivers/src/pic_i2c.c: 54:         PIR1 &= ~ ( 1 << 0x
      +                          3 );
  1759  02DC  30F7               	movlw	247
  1760  02DD  00FF               	movwf	btemp+1
  1761  02DE  087F               	movf	btemp+1,w
  1762  02DF  058C               	andwf	12,f	;volatile
  1763  02E0                     l2325:
  1764                           
  1765                           ;Drivers/src/pic_i2c.c: 57:         PIE1 |= ( 1 << 0x3 );
  1766  02E0  1683               	bsf	3,5	;RP0=1, select bank1
  1767  02E1  1303               	bcf	3,6	;RP1=0, select bank1
  1768  02E2  158C               	bsf	12,3	;volatile
  1769  02E3                     l2327:
  1770                           
  1771                           ;Drivers/src/pic_i2c.c: 62:     if ( i2ch->I2C_mode == I2C_MODE_MASTER_HARDWARE_CONTROLL
      +                          ED )
  1772  02E3  1283               	bcf	3,5	;RP0=0, select bank0
  1773  02E4  0838               	movf	I2C_Init@i2ch,w
  1774  02E5  0084               	movwf	4
  1775  02E6  3008               	movlw	8
  1776  02E7  0600               	xorwf	0,w
  1777  02E8  1D03               	btfss	3,2
  1778  02E9  2AEB               	goto	u2361
  1779  02EA  2AEC               	goto	u2360
  1780  02EB                     u2361:
  1781  02EB  2B0F               	goto	l2331
  1782  02EC                     u2360:
  1783  02EC                     l2329:
  1784                           
  1785                           ;Drivers/src/pic_i2c.c: 63:     {;Drivers/src/pic_i2c.c: 65:         SSPADD = (( (800000
      +                          0UL / 4 )/( i2ch->I2C_freq ) ) -1 );
  1786  02EC  0838               	movf	I2C_Init@i2ch,w
  1787  02ED  3E04               	addlw	4
  1788  02EE  0084               	movwf	4
  1789  02EF  0800               	movf	0,w
  1790  02F0  00A6               	movwf	___lldiv@divisor
  1791  02F1  0A84               	incf	4,f
  1792  02F2  0800               	movf	0,w
  1793  02F3  00A7               	movwf	___lldiv@divisor+1
  1794  02F4  0A84               	incf	4,f
  1795  02F5  0800               	movf	0,w
  1796  02F6  00A8               	movwf	___lldiv@divisor+2
  1797  02F7  0A84               	incf	4,f
  1798  02F8  0800               	movf	0,w
  1799  02F9  00A9               	movwf	___lldiv@divisor+3
  1800  02FA  3000               	movlw	0
  1801  02FB  00AD               	movwf	___lldiv@dividend+3
  1802  02FC  301E               	movlw	30
  1803  02FD  00AC               	movwf	___lldiv@dividend+2
  1804  02FE  3084               	movlw	132
  1805  02FF  00AB               	movwf	___lldiv@dividend+1
  1806  0300  3080               	movlw	128
  1807  0301  00AA               	movwf	___lldiv@dividend
  1808  0302  120A  118A  2542  120A  118A  	fcall	___lldiv
  1809  0307  1283               	bcf	3,5	;RP0=0, select bank0
  1810  0308  1303               	bcf	3,6	;RP1=0, select bank0
  1811  0309  0826               	movf	?___lldiv,w
  1812  030A  3EFF               	addlw	255
  1813  030B  1683               	bsf	3,5	;RP0=1, select bank1
  1814  030C  1303               	bcf	3,6	;RP1=0, select bank1
  1815  030D  0093               	movwf	19	;volatile
  1816                           
  1817                           ;Drivers/src/pic_i2c.c: 67:     }
  1818  030E  2B25               	goto	l2337
  1819  030F                     l2331:
  1820  030F  0838               	movf	I2C_Init@i2ch,w
  1821  0310  0084               	movwf	4
  1822  0311  300E               	movlw	14
  1823  0312  0600               	xorwf	0,w
  1824  0313  1903               	btfsc	3,2
  1825  0314  2B16               	goto	u2371
  1826  0315  2B17               	goto	u2370
  1827  0316                     u2371:
  1828  0316  2B1F               	goto	l2335
  1829  0317                     u2370:
  1830  0317                     l2333:
  1831  0317  0838               	movf	I2C_Init@i2ch,w
  1832  0318  0084               	movwf	4
  1833  0319  3006               	movlw	6
  1834  031A  0600               	xorwf	0,w
  1835  031B  1D03               	btfss	3,2
  1836  031C  2B1E               	goto	u2381
  1837  031D  2B1F               	goto	u2380
  1838  031E                     u2381:
  1839  031E  2B25               	goto	l2337
  1840  031F                     u2380:
  1841  031F                     l2335:
  1842                           
  1843                           ;Drivers/src/pic_i2c.c: 70:     {;Drivers/src/pic_i2c.c: 71:         SSPADD = i2ch->sla7
      +                          _addr ;
  1844  031F  0A38               	incf	I2C_Init@i2ch,w
  1845  0320  0084               	movwf	4
  1846  0321  0800               	movf	0,w
  1847  0322  1683               	bsf	3,5	;RP0=1, select bank1
  1848  0323  1303               	bcf	3,6	;RP1=0, select bank1
  1849  0324  0093               	movwf	19	;volatile
  1850  0325                     l2337:
  1851                           
  1852                           ;Drivers/src/pic_i2c.c: 75:     TRISC3 = 1 ;
  1853  0325  1683               	bsf	3,5	;RP0=1, select bank1
  1854  0326  1303               	bcf	3,6	;RP1=0, select bank1
  1855  0327  1587               	bsf	7,3	;volatile
  1856  0328                     l2339:
  1857                           
  1858                           ;Drivers/src/pic_i2c.c: 76:     TRISC4 = 1 ;
  1859  0328  1607               	bsf	7,4	;volatile
  1860  0329                     l2341:
  1861                           
  1862                           ;Drivers/src/pic_i2c.c: 78:     SSPCON2 = 0x00;
  1863  0329  0191               	clrf	17	;volatile
  1864  032A                     l2343:
  1865                           
  1866                           ;Drivers/src/pic_i2c.c: 79:     SSPSTAT = 0x00;
  1867  032A  0194               	clrf	20	;volatile
  1868  032B                     l2345:
  1869                           
  1870                           ;Drivers/src/pic_i2c.c: 80:     SSPCON = (( i2ch->I2C_mode << 0x0 )|( 1 << 0x5 )) ;
  1871  032B  1283               	bcf	3,5	;RP0=0, select bank0
  1872  032C  1303               	bcf	3,6	;RP1=0, select bank0
  1873  032D  0838               	movf	I2C_Init@i2ch,w
  1874  032E  0084               	movwf	4
  1875  032F  1383               	bcf	3,7	;select IRP bank0
  1876  0330  0800               	movf	0,w
  1877  0331  3820               	iorlw	32
  1878  0332  0094               	movwf	20	;volatile
  1879  0333                     l309:
  1880  0333  0008               	return
  1881  0334                     __end_of_I2C_Init:
  1882                           
  1883                           	psect	text4
  1884  0542                     __ptext4:	
  1885 ;; *************** function ___lldiv *****************
  1886 ;; Defined at:
  1887 ;;		line 5 in file "C:\Program Files\Microchip\xc8\v2.20\pic\sources\c90\common\__lldiv.c"
  1888 ;; Parameters:    Size  Location     Type
  1889 ;;  divisor         4    6[BANK0 ] unsigned long 
  1890 ;;  dividend        4   10[BANK0 ] unsigned long 
  1891 ;; Auto vars:     Size  Location     Type
  1892 ;;  quotient        4   15[BANK0 ] unsigned long 
  1893 ;;  counter         1   19[BANK0 ] unsigned char 
  1894 ;; Return value:  Size  Location     Type
  1895 ;;                  4    6[BANK0 ] unsigned long 
  1896 ;; Registers used:
  1897 ;;		wreg, status,2, status,0, btemp+1
  1898 ;; Tracked objects:
  1899 ;;		On entry : 0/0
  1900 ;;		On exit  : 0/0
  1901 ;;		Unchanged: 0/0
  1902 ;; Data sizes:     COMMON   BANK0   BANK1   BANK3   BANK2
  1903 ;;      Params:         0       8       0       0       0
  1904 ;;      Locals:         0       5       0       0       0
  1905 ;;      Temps:          0       1       0       0       0
  1906 ;;      Totals:         0      14       0       0       0
  1907 ;;Total ram usage:       14 bytes
  1908 ;; Hardware stack levels used:    1
  1909 ;; Hardware stack levels required when called:    4
  1910 ;; This function calls:
  1911 ;;		Nothing
  1912 ;; This function is called by:
  1913 ;;		_I2C_Init
  1914 ;; This function uses a non-reentrant model
  1915 ;;
  1916                           
  1917                           
  1918                           ;psect for function ___lldiv
  1919  0542                     ___lldiv:
  1920  0542                     l2279:	
  1921                           ;incstack = 0
  1922                           ; Regs used in ___lldiv: [wreg+status,2+status,0+btemp+1]
  1923                           
  1924  0542  3000               	movlw	0
  1925  0543  1283               	bcf	3,5	;RP0=0, select bank0
  1926  0544  1303               	bcf	3,6	;RP1=0, select bank0
  1927  0545  00B2               	movwf	___lldiv@quotient+3
  1928  0546  3000               	movlw	0
  1929  0547  00B1               	movwf	___lldiv@quotient+2
  1930  0548  3000               	movlw	0
  1931  0549  00B0               	movwf	___lldiv@quotient+1
  1932  054A  3000               	movlw	0
  1933  054B  00AF               	movwf	___lldiv@quotient
  1934  054C  0829               	movf	___lldiv@divisor+3,w
  1935  054D  0428               	iorwf	___lldiv@divisor+2,w
  1936  054E  0427               	iorwf	___lldiv@divisor+1,w
  1937  054F  0426               	iorwf	___lldiv@divisor,w
  1938  0550  1903               	skipnz
  1939  0551  2D53               	goto	u2201
  1940  0552  2D54               	goto	u2200
  1941  0553                     u2201:
  1942  0553  2DA1               	goto	l2301
  1943  0554                     u2200:
  1944  0554                     l2281:
  1945  0554  01B3               	clrf	___lldiv@counter
  1946  0555  0AB3               	incf	___lldiv@counter,f
  1947  0556  2D64               	goto	l2287
  1948  0557                     l2283:
  1949  0557  3001               	movlw	1
  1950  0558  00AE               	movwf	??___lldiv
  1951  0559                     u2215:
  1952  0559  1003               	clrc
  1953  055A  0DA6               	rlf	___lldiv@divisor,f
  1954  055B  0DA7               	rlf	___lldiv@divisor+1,f
  1955  055C  0DA8               	rlf	___lldiv@divisor+2,f
  1956  055D  0DA9               	rlf	___lldiv@divisor+3,f
  1957  055E  0BAE               	decfsz	??___lldiv,f
  1958  055F  2D59               	goto	u2215
  1959  0560                     l2285:
  1960  0560  3001               	movlw	1
  1961  0561  00FF               	movwf	btemp+1
  1962  0562  087F               	movf	btemp+1,w
  1963  0563  07B3               	addwf	___lldiv@counter,f
  1964  0564                     l2287:
  1965  0564  1FA9               	btfss	___lldiv@divisor+3,7
  1966  0565  2D67               	goto	u2221
  1967  0566  2D68               	goto	u2220
  1968  0567                     u2221:
  1969  0567  2D57               	goto	l2283
  1970  0568                     u2220:
  1971  0568                     l2289:
  1972  0568  3001               	movlw	1
  1973  0569  00AE               	movwf	??___lldiv
  1974  056A                     u2235:
  1975  056A  1003               	clrc
  1976  056B  0DAF               	rlf	___lldiv@quotient,f
  1977  056C  0DB0               	rlf	___lldiv@quotient+1,f
  1978  056D  0DB1               	rlf	___lldiv@quotient+2,f
  1979  056E  0DB2               	rlf	___lldiv@quotient+3,f
  1980  056F  0BAE               	decfsz	??___lldiv,f
  1981  0570  2D6A               	goto	u2235
  1982  0571                     l2291:
  1983  0571  0829               	movf	___lldiv@divisor+3,w
  1984  0572  022D               	subwf	___lldiv@dividend+3,w
  1985  0573  1D03               	skipz
  1986  0574  2D7F               	goto	u2245
  1987  0575  0828               	movf	___lldiv@divisor+2,w
  1988  0576  022C               	subwf	___lldiv@dividend+2,w
  1989  0577  1D03               	skipz
  1990  0578  2D7F               	goto	u2245
  1991  0579  0827               	movf	___lldiv@divisor+1,w
  1992  057A  022B               	subwf	___lldiv@dividend+1,w
  1993  057B  1D03               	skipz
  1994  057C  2D7F               	goto	u2245
  1995  057D  0826               	movf	___lldiv@divisor,w
  1996  057E  022A               	subwf	___lldiv@dividend,w
  1997  057F                     u2245:
  1998  057F  1C03               	skipc
  1999  0580  2D82               	goto	u2241
  2000  0581  2D83               	goto	u2240
  2001  0582                     u2241:
  2002  0582  2D92               	goto	l2297
  2003  0583                     u2240:
  2004  0583                     l2293:
  2005  0583  0826               	movf	___lldiv@divisor,w
  2006  0584  02AA               	subwf	___lldiv@dividend,f
  2007  0585  0827               	movf	___lldiv@divisor+1,w
  2008  0586  1C03               	skipc
  2009  0587  0F27               	incfsz	___lldiv@divisor+1,w
  2010  0588  02AB               	subwf	___lldiv@dividend+1,f
  2011  0589  0828               	movf	___lldiv@divisor+2,w
  2012  058A  1C03               	skipc
  2013  058B  0F28               	incfsz	___lldiv@divisor+2,w
  2014  058C  02AC               	subwf	___lldiv@dividend+2,f
  2015  058D  0829               	movf	___lldiv@divisor+3,w
  2016  058E  1C03               	skipc
  2017  058F  0F29               	incfsz	___lldiv@divisor+3,w
  2018  0590  02AD               	subwf	___lldiv@dividend+3,f
  2019  0591                     l2295:
  2020  0591  142F               	bsf	___lldiv@quotient,0
  2021  0592                     l2297:
  2022  0592  3001               	movlw	1
  2023  0593                     u2255:
  2024  0593  1003               	clrc
  2025  0594  0CA9               	rrf	___lldiv@divisor+3,f
  2026  0595  0CA8               	rrf	___lldiv@divisor+2,f
  2027  0596  0CA7               	rrf	___lldiv@divisor+1,f
  2028  0597  0CA6               	rrf	___lldiv@divisor,f
  2029  0598  3EFF               	addlw	-1
  2030  0599  1D03               	skipz
  2031  059A  2D93               	goto	u2255
  2032  059B                     l2299:
  2033  059B  3001               	movlw	1
  2034  059C  02B3               	subwf	___lldiv@counter,f
  2035  059D  1D03               	btfss	3,2
  2036  059E  2DA0               	goto	u2261
  2037  059F  2DA1               	goto	u2260
  2038  05A0                     u2261:
  2039  05A0  2D68               	goto	l2289
  2040  05A1                     u2260:
  2041  05A1                     l2301:
  2042  05A1  0832               	movf	___lldiv@quotient+3,w
  2043  05A2  00A9               	movwf	?___lldiv+3
  2044  05A3  0831               	movf	___lldiv@quotient+2,w
  2045  05A4  00A8               	movwf	?___lldiv+2
  2046  05A5  0830               	movf	___lldiv@quotient+1,w
  2047  05A6  00A7               	movwf	?___lldiv+1
  2048  05A7  082F               	movf	___lldiv@quotient,w
  2049  05A8  00A6               	movwf	?___lldiv
  2050  05A9                     l483:
  2051  05A9  0008               	return
  2052  05AA                     __end_of___lldiv:
  2053                           
  2054                           	psect	text5
  2055  07BA                     __ptext5:	
  2056 ;; *************** function _DisplayInit *****************
  2057 ;; Defined at:
  2058 ;;		line 74 in file "Drivers/src/pic_tim1.c"
  2059 ;; Parameters:    Size  Location     Type
  2060 ;;		None
  2061 ;; Auto vars:     Size  Location     Type
  2062 ;;		None
  2063 ;; Return value:  Size  Location     Type
  2064 ;;                  1    wreg      void 
  2065 ;; Registers used:
  2066 ;;		wreg, status,2, status,0, btemp+1, pclath, cstack
  2067 ;; Tracked objects:
  2068 ;;		On entry : 0/0
  2069 ;;		On exit  : 0/0
  2070 ;;		Unchanged: 0/0
  2071 ;; Data sizes:     COMMON   BANK0   BANK1   BANK3   BANK2
  2072 ;;      Params:         0       0       0       0       0
  2073 ;;      Locals:         0       0       0       0       0
  2074 ;;      Temps:          0       0       0       0       0
  2075 ;;      Totals:         0       0       0       0       0
  2076 ;;Total ram usage:        0 bytes
  2077 ;; Hardware stack levels used:    1
  2078 ;; Hardware stack levels required when called:    5
  2079 ;; This function calls:
  2080 ;;		_TIMER2_SETUP_60HZ
  2081 ;; This function is called by:
  2082 ;;		_system_startup
  2083 ;; This function uses a non-reentrant model
  2084 ;;
  2085                           
  2086                           
  2087                           ;psect for function _DisplayInit
  2088  07BA                     _DisplayInit:
  2089  07BA                     l2383:	
  2090                           ;incstack = 0
  2091                           ; Regs used in _DisplayInit: [wreg+status,2+status,0+btemp+1+pclath+cstack]
  2092                           
  2093                           
  2094                           ;Drivers/src/pic_tim1.c: 79:     TRISD = 0 ;
  2095  07BA  1683               	bsf	3,5	;RP0=1, select bank1
  2096  07BB  1303               	bcf	3,6	;RP1=0, select bank1
  2097  07BC  0188               	clrf	8	;volatile
  2098  07BD                     l2385:
  2099                           
  2100                           ;Drivers/src/pic_tim1.c: 80:     TRISA &= ~ ( 1 << 5 );
  2101  07BD  30DF               	movlw	223
  2102  07BE  00FF               	movwf	btemp+1
  2103  07BF  087F               	movf	btemp+1,w
  2104  07C0  0585               	andwf	5,f	;volatile
  2105  07C1                     l2387:
  2106                           
  2107                           ;Drivers/src/pic_tim1.c: 81:     TRISA &= ~ ( 1 << 4 );
  2108  07C1  30EF               	movlw	239
  2109  07C2  00FF               	movwf	btemp+1
  2110  07C3  087F               	movf	btemp+1,w
  2111  07C4  0585               	andwf	5,f	;volatile
  2112  07C5                     l2389:
  2113                           
  2114                           ;Drivers/src/pic_tim1.c: 82:     T2CON&= ~ ( 1 << 0x2 ); PORTA &= ~( 1 << 5 ); PORTA &= 
      +                          ~ ( 1 << 4 );
  2115  07C5  30FB               	movlw	251
  2116  07C6  00FF               	movwf	btemp+1
  2117  07C7  087F               	movf	btemp+1,w
  2118  07C8  1283               	bcf	3,5	;RP0=0, select bank0
  2119  07C9  1303               	bcf	3,6	;RP1=0, select bank0
  2120  07CA  0592               	andwf	18,f	;volatile
  2121  07CB                     l2391:
  2122  07CB  30DF               	movlw	223
  2123  07CC  00FF               	movwf	btemp+1
  2124  07CD  087F               	movf	btemp+1,w
  2125  07CE  0585               	andwf	5,f	;volatile
  2126  07CF                     l2393:
  2127  07CF  30EF               	movlw	239
  2128  07D0  00FF               	movwf	btemp+1
  2129  07D1  087F               	movf	btemp+1,w
  2130  07D2  0585               	andwf	5,f	;volatile
  2131  07D3                     l2395:
  2132                           
  2133                           ;Drivers/src/pic_tim1.c: 86:     TIMER2_SETUP_60HZ();
  2134  07D3  120A  158A  27CD  120A  118A  	fcall	_TIMER2_SETUP_60HZ
  2135  07D8                     l283:
  2136  07D8  0008               	return
  2137  07D9                     __end_of_DisplayInit:
  2138                           
  2139                           	psect	text6
  2140  0FCD                     __ptext6:	
  2141 ;; *************** function _TIMER2_SETUP_60HZ *****************
  2142 ;; Defined at:
  2143 ;;		line 53 in file "Drivers/src/pic_tim1.c"
  2144 ;; Parameters:    Size  Location     Type
  2145 ;;		None
  2146 ;; Auto vars:     Size  Location     Type
  2147 ;;		None
  2148 ;; Return value:  Size  Location     Type
  2149 ;;                  1    wreg      void 
  2150 ;; Registers used:
  2151 ;;		wreg, status,2, status,0, btemp+1
  2152 ;; Tracked objects:
  2153 ;;		On entry : 0/0
  2154 ;;		On exit  : 0/0
  2155 ;;		Unchanged: 0/0
  2156 ;; Data sizes:     COMMON   BANK0   BANK1   BANK3   BANK2
  2157 ;;      Params:         0       0       0       0       0
  2158 ;;      Locals:         0       0       0       0       0
  2159 ;;      Temps:          0       0       0       0       0
  2160 ;;      Totals:         0       0       0       0       0
  2161 ;;Total ram usage:        0 bytes
  2162 ;; Hardware stack levels used:    1
  2163 ;; Hardware stack levels required when called:    4
  2164 ;; This function calls:
  2165 ;;		Nothing
  2166 ;; This function is called by:
  2167 ;;		_DisplayInit
  2168 ;; This function uses a non-reentrant model
  2169 ;;
  2170                           
  2171                           
  2172                           ;psect for function _TIMER2_SETUP_60HZ
  2173  0FCD                     _TIMER2_SETUP_60HZ:
  2174  0FCD                     l2267:	
  2175                           ;incstack = 0
  2176                           ; Regs used in _TIMER2_SETUP_60HZ: [wreg+status,2+status,0+btemp+1]
  2177                           
  2178                           
  2179                           ;Drivers/src/pic_tim1.c: 56:     PIR1 &= ~ ( 1 << 0x1 );
  2180  0FCD  30FD               	movlw	253
  2181  0FCE  00FF               	movwf	btemp+1
  2182  0FCF  087F               	movf	btemp+1,w
  2183  0FD0  1283               	bcf	3,5	;RP0=0, select bank0
  2184  0FD1  1303               	bcf	3,6	;RP1=0, select bank0
  2185  0FD2  058C               	andwf	12,f	;volatile
  2186  0FD3                     l2269:
  2187                           
  2188                           ;Drivers/src/pic_tim1.c: 58:     PIE1 |= ( 1 << 0x1 );
  2189  0FD3  1683               	bsf	3,5	;RP0=1, select bank1
  2190  0FD4  1303               	bcf	3,6	;RP1=0, select bank1
  2191  0FD5  148C               	bsf	12,1	;volatile
  2192  0FD6                     l2271:
  2193                           
  2194                           ;Drivers/src/pic_tim1.c: 60:     PR2 = 0XFF ;
  2195  0FD6  30FF               	movlw	255
  2196  0FD7  0092               	movwf	18	;volatile
  2197  0FD8                     l2273:
  2198                           
  2199                           ;Drivers/src/pic_tim1.c: 62:     T2CON = (( 0B0100 << 0x3 )| ( 0B11 << 0x0 ) |
  2200  0FD8  3027               	movlw	39
  2201  0FD9  1283               	bcf	3,5	;RP0=0, select bank0
  2202  0FDA  1303               	bcf	3,6	;RP1=0, select bank0
  2203  0FDB  0092               	movwf	18	;volatile
  2204  0FDC                     l280:
  2205  0FDC  0008               	return
  2206  0FDD                     __end_of_TIMER2_SETUP_60HZ:
  2207                           
  2208                           	psect	text7
  2209  03D3                     __ptext7:	
  2210 ;; *************** function _ADC_Init *****************
  2211 ;; Defined at:
  2212 ;;		line 115 in file "Drivers/src/pic_adc.c"
  2213 ;; Parameters:    Size  Location     Type
  2214 ;;  config_s_ptr    1    wreg     PTR struct .
  2215 ;;		 -> system_startup@my_s(6), 
  2216 ;; Auto vars:     Size  Location     Type
  2217 ;;  config_s_ptr    1   10[BANK0 ] PTR struct .
  2218 ;;		 -> system_startup@my_s(6), 
  2219 ;; Return value:  Size  Location     Type
  2220 ;;                  1    wreg      char 
  2221 ;; Registers used:
  2222 ;;		wreg, fsr0l, fsr0h, status,2, status,0, btemp+1, pclath, cstack
  2223 ;; Tracked objects:
  2224 ;;		On entry : 0/0
  2225 ;;		On exit  : 0/0
  2226 ;;		Unchanged: 0/0
  2227 ;; Data sizes:     COMMON   BANK0   BANK1   BANK3   BANK2
  2228 ;;      Params:         0       0       0       0       0
  2229 ;;      Locals:         0       1       0       0       0
  2230 ;;      Temps:          0       4       0       0       0
  2231 ;;      Totals:         0       5       0       0       0
  2232 ;;Total ram usage:        5 bytes
  2233 ;; Hardware stack levels used:    1
  2234 ;; Hardware stack levels required when called:    5
  2235 ;; This function calls:
  2236 ;;		_ADC_ClearFlag
  2237 ;;		_ADC_EnableINT
  2238 ;;		_ADC_StartConv_NB
  2239 ;; This function is called by:
  2240 ;;		_system_startup
  2241 ;; This function uses a non-reentrant model
  2242 ;;
  2243                           
  2244                           
  2245                           ;psect for function _ADC_Init
  2246  03D3                     _ADC_Init:
  2247                           
  2248                           ;incstack = 0
  2249                           ; Regs used in _ADC_Init: [wreg-fsr0h+status,2+status,0+btemp+1+pclath+cstack]
  2250                           ;ADC_Init@config_s_ptr stored from wreg
  2251  03D3  1283               	bcf	3,5	;RP0=0, select bank0
  2252  03D4  1303               	bcf	3,6	;RP1=0, select bank0
  2253  03D5  00AA               	movwf	ADC_Init@config_s_ptr
  2254  03D6                     l2349:
  2255                           
  2256                           ;Drivers/src/pic_adc.c: 115: int8_t ADC_Init ( ADC_Config_S * config_s_ptr );Drivers/src
      +                          /pic_adc.c: 116: {;Drivers/src/pic_adc.c: 120:     if ( (config_s_ptr->CH_sel > (8UL -1 
      +                          ) ) ||
  2257  03D6  082A               	movf	ADC_Init@config_s_ptr,w
  2258  03D7  3E03               	addlw	3
  2259  03D8  0084               	movwf	4
  2260  03D9  3008               	movlw	8
  2261  03DA  1383               	bcf	3,7	;select IRP bank0
  2262  03DB  0200               	subwf	0,w
  2263  03DC  1803               	skipnc
  2264  03DD  2BDF               	goto	u2391
  2265  03DE  2BE0               	goto	u2390
  2266  03DF                     u2391:
  2267  03DF  2C69               	goto	l123
  2268  03E0                     u2390:
  2269  03E0                     l2351:
  2270  03E0  082A               	movf	ADC_Init@config_s_ptr,w
  2271  03E1  0084               	movwf	4
  2272  03E2  3007               	movlw	7
  2273  03E3  0200               	subwf	0,w
  2274  03E4  1803               	skipnc
  2275  03E5  2BE7               	goto	u2401
  2276  03E6  2BE8               	goto	u2400
  2277  03E7                     u2401:
  2278  03E7  2C69               	goto	l123
  2279  03E8                     u2400:
  2280  03E8                     l2353:
  2281  03E8  082A               	movf	ADC_Init@config_s_ptr,w
  2282  03E9  3E02               	addlw	2
  2283  03EA  0084               	movwf	4
  2284  03EB  3002               	movlw	2
  2285  03EC  0200               	subwf	0,w
  2286  03ED  1803               	skipnc
  2287  03EE  2BF0               	goto	u2411
  2288  03EF  2BF1               	goto	u2410
  2289  03F0                     u2411:
  2290  03F0  2C69               	goto	l123
  2291  03F1                     u2410:
  2292  03F1                     l2355:
  2293  03F1  0A2A               	incf	ADC_Init@config_s_ptr,w
  2294  03F2  0084               	movwf	4
  2295  03F3  3010               	movlw	16
  2296  03F4  0200               	subwf	0,w
  2297  03F5  1C03               	skipc
  2298  03F6  2BF8               	goto	u2421
  2299  03F7  2BF9               	goto	u2420
  2300  03F8                     u2421:
  2301  03F8  2BFA               	goto	l2357
  2302  03F9                     u2420:
  2303  03F9  2C69               	goto	l123
  2304  03FA                     l2357:
  2305                           
  2306                           ;Drivers/src/pic_adc.c: 132:     ADCON1 = ( (config_s_ptr->FMT_bf << 0x7 ) |
  2307  03FA  0A2A               	incf	ADC_Init@config_s_ptr,w
  2308  03FB  0084               	movwf	4
  2309  03FC  0800               	movf	0,w
  2310  03FD  00A6               	movwf	??_ADC_Init
  2311  03FE  082A               	movf	ADC_Init@config_s_ptr,w
  2312  03FF  0084               	movwf	4
  2313  0400  0800               	movf	0,w
  2314  0401  00A7               	movwf	??_ADC_Init+1
  2315  0402  3002               	movlw	2
  2316  0403                     u2435:
  2317  0403  1003               	clrc
  2318  0404  0CA7               	rrf	??_ADC_Init+1,f
  2319  0405  3EFF               	addlw	-1
  2320  0406  1D03               	skipz
  2321  0407  2C03               	goto	u2435
  2322  0408  0827               	movf	??_ADC_Init+1,w
  2323  0409  00A8               	movwf	??_ADC_Init+2
  2324  040A  3006               	movlw	6
  2325  040B                     u2445:
  2326  040B  1003               	clrc
  2327  040C  0DA8               	rlf	??_ADC_Init+2,f
  2328  040D  3EFF               	addlw	-1
  2329  040E  1D03               	skipz
  2330  040F  2C0B               	goto	u2445
  2331  0410  082A               	movf	ADC_Init@config_s_ptr,w
  2332  0411  3E02               	addlw	2
  2333  0412  0084               	movwf	4
  2334  0413  0800               	movf	0,w
  2335  0414  00A9               	movwf	??_ADC_Init+3
  2336  0415  3006               	movlw	6
  2337  0416                     u2455:
  2338  0416  1003               	clrc
  2339  0417  0DA9               	rlf	??_ADC_Init+3,f
  2340  0418  3EFF               	addlw	-1
  2341  0419  1D03               	skipz
  2342  041A  2C16               	goto	u2455
  2343  041B  1003               	clrc
  2344  041C  0D29               	rlf	??_ADC_Init+3,w
  2345  041D  0428               	iorwf	??_ADC_Init+2,w
  2346  041E  0426               	iorwf	??_ADC_Init,w
  2347  041F  1683               	bsf	3,5	;RP0=1, select bank1
  2348  0420  1303               	bcf	3,6	;RP1=0, select bank1
  2349  0421  009F               	movwf	31	;volatile
  2350                           
  2351                           ;Drivers/src/pic_adc.c: 139:     if ( config_s_ptr->INT_enable )
  2352  0422  1283               	bcf	3,5	;RP0=0, select bank0
  2353  0423  1303               	bcf	3,6	;RP1=0, select bank0
  2354  0424  082A               	movf	ADC_Init@config_s_ptr,w
  2355  0425  3E04               	addlw	4
  2356  0426  0084               	movwf	4
  2357  0427  0800               	movf	0,w
  2358  0428  1903               	btfsc	3,2
  2359  0429  2C2B               	goto	u2461
  2360  042A  2C2C               	goto	u2460
  2361  042B                     u2461:
  2362  042B  2C36               	goto	l2363
  2363  042C                     u2460:
  2364  042C                     l2359:
  2365                           
  2366                           ;Drivers/src/pic_adc.c: 140:     {;Drivers/src/pic_adc.c: 142:        ADC_ClearFlag();
  2367  042C  120A  158A  2782  120A  118A  	fcall	_ADC_ClearFlag
  2368  0431                     l2361:
  2369                           
  2370                           ;Drivers/src/pic_adc.c: 144:         ADC_EnableINT();
  2371  0431  120A  158A  277A  120A  118A  	fcall	_ADC_EnableINT
  2372  0436                     l2363:
  2373                           
  2374                           ;Drivers/src/pic_adc.c: 148:     ADCON0 = ( (config_s_ptr->CH_sel << 0x3 ) |
  2375  0436  1283               	bcf	3,5	;RP0=0, select bank0
  2376  0437  1303               	bcf	3,6	;RP1=0, select bank0
  2377  0438  082A               	movf	ADC_Init@config_s_ptr,w
  2378  0439  0084               	movwf	4
  2379  043A  1383               	bcf	3,7	;select IRP bank0
  2380  043B  0800               	movf	0,w
  2381  043C  3904               	andlw	4
  2382  043D  00A6               	movwf	??_ADC_Init
  2383  043E  3006               	movlw	6
  2384  043F                     u2475:
  2385  043F  1003               	clrc
  2386  0440  0DA6               	rlf	??_ADC_Init,f
  2387  0441  3EFF               	addlw	-1
  2388  0442  1D03               	skipz
  2389  0443  2C3F               	goto	u2475
  2390  0444  082A               	movf	ADC_Init@config_s_ptr,w
  2391  0445  3E03               	addlw	3
  2392  0446  0084               	movwf	4
  2393  0447  0800               	movf	0,w
  2394  0448  00A7               	movwf	??_ADC_Init+1
  2395  0449  3002               	movlw	2
  2396  044A                     u2485:
  2397  044A  1003               	clrc
  2398  044B  0DA7               	rlf	??_ADC_Init+1,f
  2399  044C  3EFF               	addlw	-1
  2400  044D  1D03               	skipz
  2401  044E  2C4A               	goto	u2485
  2402  044F  1003               	clrc
  2403  0450  0D27               	rlf	??_ADC_Init+1,w
  2404  0451  0426               	iorwf	??_ADC_Init,w
  2405  0452  3801               	iorlw	1
  2406  0453  009F               	movwf	31	;volatile
  2407  0454                     l2365:
  2408                           
  2409                           ;Drivers/src/pic_adc.c: 155:     if ( config_s_ptr->INT_enable && config_s_ptr->convStar
      +                          t_Sel )
  2410  0454  082A               	movf	ADC_Init@config_s_ptr,w
  2411  0455  3E04               	addlw	4
  2412  0456  0084               	movwf	4
  2413  0457  0800               	movf	0,w
  2414  0458  1903               	btfsc	3,2
  2415  0459  2C5B               	goto	u2491
  2416  045A  2C5C               	goto	u2490
  2417  045B                     u2491:
  2418  045B  2C69               	goto	l123
  2419  045C                     u2490:
  2420  045C                     l2367:
  2421  045C  082A               	movf	ADC_Init@config_s_ptr,w
  2422  045D  3E05               	addlw	5
  2423  045E  0084               	movwf	4
  2424  045F  0800               	movf	0,w
  2425  0460  1903               	btfsc	3,2
  2426  0461  2C63               	goto	u2501
  2427  0462  2C64               	goto	u2500
  2428  0463                     u2501:
  2429  0463  2C69               	goto	l123
  2430  0464                     u2500:
  2431  0464                     l2369:
  2432                           
  2433                           ;Drivers/src/pic_adc.c: 156:     {;Drivers/src/pic_adc.c: 157:         ADC_StartConv_NB(
      +                          );
  2434  0464  120A  158A  277E  120A  118A  	fcall	_ADC_StartConv_NB
  2435  0469                     l123:
  2436  0469  0008               	return
  2437  046A                     __end_of_ADC_Init:
  2438                           
  2439                           	psect	text8
  2440  0F7E                     __ptext8:	
  2441 ;; *************** function _ADC_StartConv_NB *****************
  2442 ;; Defined at:
  2443 ;;		line 82 in file "Drivers/src/pic_adc.c"
  2444 ;; Parameters:    Size  Location     Type
  2445 ;;		None
  2446 ;; Auto vars:     Size  Location     Type
  2447 ;;		None
  2448 ;; Return value:  Size  Location     Type
  2449 ;;                  1    wreg      void 
  2450 ;; Registers used:
  2451 ;;		None
  2452 ;; Tracked objects:
  2453 ;;		On entry : 0/0
  2454 ;;		On exit  : 0/0
  2455 ;;		Unchanged: 0/0
  2456 ;; Data sizes:     COMMON   BANK0   BANK1   BANK3   BANK2
  2457 ;;      Params:         0       0       0       0       0
  2458 ;;      Locals:         0       0       0       0       0
  2459 ;;      Temps:          0       0       0       0       0
  2460 ;;      Totals:         0       0       0       0       0
  2461 ;;Total ram usage:        0 bytes
  2462 ;; Hardware stack levels used:    1
  2463 ;; Hardware stack levels required when called:    4
  2464 ;; This function calls:
  2465 ;;		Nothing
  2466 ;; This function is called by:
  2467 ;;		_ADC_Init
  2468 ;; This function uses a non-reentrant model
  2469 ;;
  2470                           
  2471                           
  2472                           ;psect for function _ADC_StartConv_NB
  2473  0F7E                     _ADC_StartConv_NB:
  2474  0F7E                     l2265:	
  2475                           ;incstack = 0
  2476                           ; Regs used in _ADC_StartConv_NB: []
  2477                           
  2478                           
  2479                           ;Drivers/src/pic_adc.c: 84:     ADCON0 |= ( 1 << 0x2 );
  2480  0F7E  1283               	bcf	3,5	;RP0=0, select bank0
  2481  0F7F  1303               	bcf	3,6	;RP1=0, select bank0
  2482  0F80  151F               	bsf	31,2	;volatile
  2483  0F81                     l111:
  2484  0F81  0008               	return
  2485  0F82                     __end_of_ADC_StartConv_NB:
  2486                           
  2487                           	psect	text9
  2488  0F7A                     __ptext9:	
  2489 ;; *************** function _ADC_EnableINT *****************
  2490 ;; Defined at:
  2491 ;;		line 43 in file "Drivers/src/pic_adc.c"
  2492 ;; Parameters:    Size  Location     Type
  2493 ;;		None
  2494 ;; Auto vars:     Size  Location     Type
  2495 ;;		None
  2496 ;; Return value:  Size  Location     Type
  2497 ;;                  1    wreg      void 
  2498 ;; Registers used:
  2499 ;;		None
  2500 ;; Tracked objects:
  2501 ;;		On entry : 0/0
  2502 ;;		On exit  : 0/0
  2503 ;;		Unchanged: 0/0
  2504 ;; Data sizes:     COMMON   BANK0   BANK1   BANK3   BANK2
  2505 ;;      Params:         0       0       0       0       0
  2506 ;;      Locals:         0       0       0       0       0
  2507 ;;      Temps:          0       0       0       0       0
  2508 ;;      Totals:         0       0       0       0       0
  2509 ;;Total ram usage:        0 bytes
  2510 ;; Hardware stack levels used:    1
  2511 ;; Hardware stack levels required when called:    4
  2512 ;; This function calls:
  2513 ;;		Nothing
  2514 ;; This function is called by:
  2515 ;;		_ADC_Init
  2516 ;; This function uses a non-reentrant model
  2517 ;;
  2518                           
  2519                           
  2520                           ;psect for function _ADC_EnableINT
  2521  0F7A                     _ADC_EnableINT:
  2522  0F7A                     l2263:	
  2523                           ;incstack = 0
  2524                           ; Regs used in _ADC_EnableINT: []
  2525                           
  2526                           
  2527                           ;Drivers/src/pic_adc.c: 45:     PIE1 |= ( 1 << 0x6 );
  2528  0F7A  1683               	bsf	3,5	;RP0=1, select bank1
  2529  0F7B  1303               	bcf	3,6	;RP1=0, select bank1
  2530  0F7C  170C               	bsf	12,6	;volatile
  2531  0F7D                     l99:
  2532  0F7D  0008               	return
  2533  0F7E                     __end_of_ADC_EnableINT:
  2534                           
  2535                           	psect	text10
  2536  0F82                     __ptext10:	
  2537 ;; *************** function _ADC_ClearFlag *****************
  2538 ;; Defined at:
  2539 ;;		line 35 in file "Drivers/src/pic_adc.c"
  2540 ;; Parameters:    Size  Location     Type
  2541 ;;		None
  2542 ;; Auto vars:     Size  Location     Type
  2543 ;;		None
  2544 ;; Return value:  Size  Location     Type
  2545 ;;                  1    wreg      void 
  2546 ;; Registers used:
  2547 ;;		wreg, status,2, status,0, btemp+1
  2548 ;; Tracked objects:
  2549 ;;		On entry : 0/0
  2550 ;;		On exit  : 0/0
  2551 ;;		Unchanged: 0/0
  2552 ;; Data sizes:     COMMON   BANK0   BANK1   BANK3   BANK2
  2553 ;;      Params:         0       0       0       0       0
  2554 ;;      Locals:         0       0       0       0       0
  2555 ;;      Temps:          0       0       0       0       0
  2556 ;;      Totals:         0       0       0       0       0
  2557 ;;Total ram usage:        0 bytes
  2558 ;; Hardware stack levels used:    1
  2559 ;; Hardware stack levels required when called:    4
  2560 ;; This function calls:
  2561 ;;		Nothing
  2562 ;; This function is called by:
  2563 ;;		_ADC_Init
  2564 ;; This function uses a non-reentrant model
  2565 ;;
  2566                           
  2567                           
  2568                           ;psect for function _ADC_ClearFlag
  2569  0F82                     _ADC_ClearFlag:
  2570  0F82                     l2261:	
  2571                           ;incstack = 0
  2572                           ; Regs used in _ADC_ClearFlag: [wreg+status,2+status,0+btemp+1]
  2573                           
  2574                           
  2575                           ;Drivers/src/pic_adc.c: 37:     PIR1 &= ~ ( 1 << 0x6 );
  2576  0F82  30BF               	movlw	191
  2577  0F83  00FF               	movwf	btemp+1
  2578  0F84  087F               	movf	btemp+1,w
  2579  0F85  1283               	bcf	3,5	;RP0=0, select bank0
  2580  0F86  1303               	bcf	3,6	;RP1=0, select bank0
  2581  0F87  058C               	andwf	12,f	;volatile
  2582  0F88                     l96:
  2583  0F88  0008               	return
  2584  0F89                     __end_of_ADC_ClearFlag:
  2585                           
  2586                           	psect	text11
  2587  06F2                     __ptext11:	
  2588 ;; *************** function _eepByteWrite *****************
  2589 ;; Defined at:
  2590 ;;		line 30 in file "Drivers/src/eep.c"
  2591 ;; Parameters:    Size  Location     Type
  2592 ;;  bval            1    wreg     unsigned char 
  2593 ;;  Addr            2    7[BANK0 ] unsigned int 
  2594 ;; Auto vars:     Size  Location     Type
  2595 ;;  bval            1   11[BANK0 ] unsigned char 
  2596 ;;  error_check     1   12[BANK0 ] unsigned char 
  2597 ;; Return value:  Size  Location     Type
  2598 ;;                  1    wreg      char 
  2599 ;; Registers used:
  2600 ;;		wreg, status,2, status,0, btemp+1, pclath, cstack
  2601 ;; Tracked objects:
  2602 ;;		On entry : 0/0
  2603 ;;		On exit  : 0/0
  2604 ;;		Unchanged: 0/0
  2605 ;; Data sizes:     COMMON   BANK0   BANK1   BANK3   BANK2
  2606 ;;      Params:         0       2       0       0       0
  2607 ;;      Locals:         0       2       0       0       0
  2608 ;;      Temps:          0       2       0       0       0
  2609 ;;      Totals:         0       6       0       0       0
  2610 ;;Total ram usage:        6 bytes
  2611 ;; Hardware stack levels used:    1
  2612 ;; Hardware stack levels required when called:    6
  2613 ;; This function calls:
  2614 ;;		_I2C_Start
  2615 ;;		_I2C_Stop
  2616 ;;		_I2C_Transmit
  2617 ;; This function is called by:
  2618 ;;		_main
  2619 ;; This function uses a non-reentrant model
  2620 ;;
  2621                           
  2622                           
  2623                           ;psect for function _eepByteWrite
  2624  06F2                     _eepByteWrite:
  2625                           
  2626                           ;incstack = 0
  2627                           ; Regs used in _eepByteWrite: [wreg+status,2+status,0+btemp+1+pclath+cstack]
  2628                           ;eepByteWrite@bval stored from wreg
  2629  06F2  1283               	bcf	3,5	;RP0=0, select bank0
  2630  06F3  1303               	bcf	3,6	;RP1=0, select bank0
  2631  06F4  00AB               	movwf	eepByteWrite@bval
  2632  06F5                     l2503:
  2633                           
  2634                           ;Drivers/src/eep.c: 30: int8_t eepByteWrite( uint8_t bval , uint16_t Addr );Drivers/src/
      +                          eep.c: 31: {;Drivers/src/eep.c: 32:     uint8_t error_check = 0 ;
  2635  06F5  01AC               	clrf	eepByteWrite@error_check
  2636  06F6                     l2505:
  2637                           
  2638                           ;Drivers/src/eep.c: 34:     I2C_Start();
  2639  06F6  120A  158A  279A  120A  118A  	fcall	_I2C_Start
  2640  06FB                     l2507:
  2641                           
  2642                           ;Drivers/src/eep.c: 36:     error_check += I2C_Transmit( (0B10100000 | ( 0B00 << 2 )) | 
      +                          0 |( (uint8_t)(( Addr >> 7 )&2 ) ));
  2643  06FB  1283               	bcf	3,5	;RP0=0, select bank0
  2644  06FC  1303               	bcf	3,6	;RP1=0, select bank0
  2645  06FD  0828               	movf	eepByteWrite@Addr+1,w
  2646  06FE  00AA               	movwf	??_eepByteWrite+1
  2647  06FF  0827               	movf	eepByteWrite@Addr,w
  2648  0700  00A9               	movwf	??_eepByteWrite
  2649  0701  3007               	movlw	7
  2650  0702                     u2565:
  2651  0702  1003               	clrc
  2652  0703  0CAA               	rrf	??_eepByteWrite+1,f
  2653  0704  0CA9               	rrf	??_eepByteWrite,f
  2654  0705  3EFF               	addlw	-1
  2655  0706  1D03               	skipz
  2656  0707  2F02               	goto	u2565
  2657  0708  0829               	movf	??_eepByteWrite,w
  2658  0709  3902               	andlw	2
  2659  070A  38A0               	iorlw	160
  2660  070B  120A  118A  27D9  120A  118A  	fcall	_I2C_Transmit
  2661  0710  00FF               	movwf	btemp+1
  2662  0711  087F               	movf	btemp+1,w
  2663  0712  1283               	bcf	3,5	;RP0=0, select bank0
  2664  0713  1303               	bcf	3,6	;RP1=0, select bank0
  2665  0714  07AC               	addwf	eepByteWrite@error_check,f
  2666  0715                     l2509:
  2667                           
  2668                           ;Drivers/src/eep.c: 37:     error_check += I2C_Transmit( (uint8_t) Addr );
  2669  0715  0827               	movf	eepByteWrite@Addr,w
  2670  0716  120A  118A  27D9  120A  118A  	fcall	_I2C_Transmit
  2671  071B  00FF               	movwf	btemp+1
  2672  071C  087F               	movf	btemp+1,w
  2673  071D  1283               	bcf	3,5	;RP0=0, select bank0
  2674  071E  1303               	bcf	3,6	;RP1=0, select bank0
  2675  071F  07AC               	addwf	eepByteWrite@error_check,f
  2676  0720                     l2511:
  2677                           
  2678                           ;Drivers/src/eep.c: 38:     error_check += I2C_Transmit( bval );
  2679  0720  082B               	movf	eepByteWrite@bval,w
  2680  0721  120A  118A  27D9  120A  118A  	fcall	_I2C_Transmit
  2681  0726  00FF               	movwf	btemp+1
  2682  0727  087F               	movf	btemp+1,w
  2683  0728  1283               	bcf	3,5	;RP0=0, select bank0
  2684  0729  1303               	bcf	3,6	;RP1=0, select bank0
  2685  072A  07AC               	addwf	eepByteWrite@error_check,f
  2686  072B                     l2513:
  2687                           
  2688                           ;Drivers/src/eep.c: 40:     I2C_Stop();
  2689  072B  120A  158A  27A3  120A  118A  	fcall	_I2C_Stop
  2690  0730                     l357:
  2691  0730  0008               	return
  2692  0731                     __end_of_eepByteWrite:
  2693                           
  2694                           	psect	text12
  2695  046A                     __ptext12:	
  2696 ;; *************** function _eepByteRead *****************
  2697 ;; Defined at:
  2698 ;;		line 56 in file "Drivers/src/eep.c"
  2699 ;; Parameters:    Size  Location     Type
  2700 ;;  Addr            2    7[BANK0 ] unsigned int 
  2701 ;; Auto vars:     Size  Location     Type
  2702 ;;  error_check     1   12[BANK0 ] unsigned char 
  2703 ;;  temp            1   11[BANK0 ] unsigned char 
  2704 ;; Return value:  Size  Location     Type
  2705 ;;                  2    7[BANK0 ] int 
  2706 ;; Registers used:
  2707 ;;		wreg, status,2, status,0, btemp+1, pclath, cstack
  2708 ;; Tracked objects:
  2709 ;;		On entry : 0/0
  2710 ;;		On exit  : 0/0
  2711 ;;		Unchanged: 0/0
  2712 ;; Data sizes:     COMMON   BANK0   BANK1   BANK3   BANK2
  2713 ;;      Params:         0       2       0       0       0
  2714 ;;      Locals:         0       2       0       0       0
  2715 ;;      Temps:          0       2       0       0       0
  2716 ;;      Totals:         0       6       0       0       0
  2717 ;;Total ram usage:        6 bytes
  2718 ;; Hardware stack levels used:    1
  2719 ;; Hardware stack levels required when called:    6
  2720 ;; This function calls:
  2721 ;;		_I2C_Receive_NACK
  2722 ;;		_I2C_Restart
  2723 ;;		_I2C_Start
  2724 ;;		_I2C_Stop
  2725 ;;		_I2C_Transmit
  2726 ;; This function is called by:
  2727 ;;		_main
  2728 ;; This function uses a non-reentrant model
  2729 ;;
  2730                           
  2731                           
  2732                           ;psect for function _eepByteRead
  2733  046A                     _eepByteRead:
  2734  046A                     l2477:	
  2735                           ;incstack = 0
  2736                           ; Regs used in _eepByteRead: [wreg+status,2+status,0+btemp+1+pclath+cstack]
  2737                           
  2738                           
  2739                           ;Drivers/src/eep.c: 56:  int16_t eepByteRead( uint16_t Addr );Drivers/src/eep.c: 57:  {;
      +                          Drivers/src/eep.c: 59:      uint8_t error_check = 0 ;
  2740  046A  1283               	bcf	3,5	;RP0=0, select bank0
  2741  046B  1303               	bcf	3,6	;RP1=0, select bank0
  2742  046C  01AC               	clrf	eepByteRead@error_check
  2743  046D                     l2479:
  2744                           
  2745                           ;Drivers/src/eep.c: 61:      I2C_Start();
  2746  046D  120A  158A  279A  120A  118A  	fcall	_I2C_Start
  2747  0472                     l2481:
  2748                           
  2749                           ;Drivers/src/eep.c: 63:      error_check += I2C_Transmit( (0B10100000 | ( 0B00 << 2 )) |
      +                           0 |( (uint8_t)(( Addr >> 7 )&2 ) ));
  2750  0472  1283               	bcf	3,5	;RP0=0, select bank0
  2751  0473  1303               	bcf	3,6	;RP1=0, select bank0
  2752  0474  0828               	movf	eepByteRead@Addr+1,w
  2753  0475  00AA               	movwf	??_eepByteRead+1
  2754  0476  0827               	movf	eepByteRead@Addr,w
  2755  0477  00A9               	movwf	??_eepByteRead
  2756  0478  3007               	movlw	7
  2757  0479                     u2535:
  2758  0479  1003               	clrc
  2759  047A  0CAA               	rrf	??_eepByteRead+1,f
  2760  047B  0CA9               	rrf	??_eepByteRead,f
  2761  047C  3EFF               	addlw	-1
  2762  047D  1D03               	skipz
  2763  047E  2C79               	goto	u2535
  2764  047F  0829               	movf	??_eepByteRead,w
  2765  0480  3902               	andlw	2
  2766  0481  38A0               	iorlw	160
  2767  0482  120A  118A  27D9  120A  118A  	fcall	_I2C_Transmit
  2768  0487  00FF               	movwf	btemp+1
  2769  0488  087F               	movf	btemp+1,w
  2770  0489  1283               	bcf	3,5	;RP0=0, select bank0
  2771  048A  1303               	bcf	3,6	;RP1=0, select bank0
  2772  048B  07AC               	addwf	eepByteRead@error_check,f
  2773  048C                     l2483:
  2774                           
  2775                           ;Drivers/src/eep.c: 64:      error_check += I2C_Transmit( (uint8_t) Addr );
  2776  048C  0827               	movf	eepByteRead@Addr,w
  2777  048D  120A  118A  27D9  120A  118A  	fcall	_I2C_Transmit
  2778  0492  00FF               	movwf	btemp+1
  2779  0493  087F               	movf	btemp+1,w
  2780  0494  1283               	bcf	3,5	;RP0=0, select bank0
  2781  0495  1303               	bcf	3,6	;RP1=0, select bank0
  2782  0496  07AC               	addwf	eepByteRead@error_check,f
  2783  0497                     l2485:
  2784                           
  2785                           ;Drivers/src/eep.c: 66:      I2C_Restart();
  2786  0497  120A  158A  2791  120A  118A  	fcall	_I2C_Restart
  2787  049C                     l2487:
  2788                           
  2789                           ;Drivers/src/eep.c: 68:      error_check += I2C_Transmit( (0B10100000 | ( 0B00 << 2 )) |
      +                           1 |( (uint8_t)(( Addr >> 7 )&2 ) ));
  2790  049C  1283               	bcf	3,5	;RP0=0, select bank0
  2791  049D  1303               	bcf	3,6	;RP1=0, select bank0
  2792  049E  0828               	movf	eepByteRead@Addr+1,w
  2793  049F  00AA               	movwf	??_eepByteRead+1
  2794  04A0  0827               	movf	eepByteRead@Addr,w
  2795  04A1  00A9               	movwf	??_eepByteRead
  2796  04A2  3007               	movlw	7
  2797  04A3                     u2545:
  2798  04A3  1003               	clrc
  2799  04A4  0CAA               	rrf	??_eepByteRead+1,f
  2800  04A5  0CA9               	rrf	??_eepByteRead,f
  2801  04A6  3EFF               	addlw	-1
  2802  04A7  1D03               	skipz
  2803  04A8  2CA3               	goto	u2545
  2804  04A9  0829               	movf	??_eepByteRead,w
  2805  04AA  3902               	andlw	2
  2806  04AB  38A1               	iorlw	161
  2807  04AC  120A  118A  27D9  120A  118A  	fcall	_I2C_Transmit
  2808  04B1  00FF               	movwf	btemp+1
  2809  04B2  087F               	movf	btemp+1,w
  2810  04B3  1283               	bcf	3,5	;RP0=0, select bank0
  2811  04B4  1303               	bcf	3,6	;RP1=0, select bank0
  2812  04B5  07AC               	addwf	eepByteRead@error_check,f
  2813  04B6                     l2489:
  2814                           
  2815                           ;Drivers/src/eep.c: 70:      uint8_t temp ;;Drivers/src/eep.c: 71:      temp = I2C_Recei
      +                          ve_NACK();
  2816  04B6  120A  118A  279A  120A  118A  	fcall	_I2C_Receive_NACK
  2817  04BB  00FF               	movwf	btemp+1
  2818  04BC  087F               	movf	btemp+1,w
  2819  04BD  1283               	bcf	3,5	;RP0=0, select bank0
  2820  04BE  1303               	bcf	3,6	;RP1=0, select bank0
  2821  04BF  00AB               	movwf	eepByteRead@temp
  2822  04C0                     l2491:
  2823                           
  2824                           ;Drivers/src/eep.c: 73:      I2C_Stop();
  2825  04C0  120A  158A  27A3  120A  118A  	fcall	_I2C_Stop
  2826  04C5                     l2493:
  2827                           
  2828                           ;Drivers/src/eep.c: 75:      if ( !error_check )
  2829  04C5  1283               	bcf	3,5	;RP0=0, select bank0
  2830  04C6  1303               	bcf	3,6	;RP1=0, select bank0
  2831  04C7  082C               	movf	eepByteRead@error_check,w
  2832  04C8  1D03               	btfss	3,2
  2833  04C9  2CCB               	goto	u2551
  2834  04CA  2CCC               	goto	u2550
  2835  04CB                     u2551:
  2836  04CB  2CD4               	goto	l2499
  2837  04CC                     u2550:
  2838  04CC                     l2495:
  2839                           
  2840                           ;Drivers/src/eep.c: 76:      {;Drivers/src/eep.c: 78:          return temp ;
  2841  04CC  082B               	movf	eepByteRead@temp,w
  2842  04CD  00A9               	movwf	??_eepByteRead
  2843  04CE  01AA               	clrf	??_eepByteRead+1
  2844  04CF  0829               	movf	??_eepByteRead,w
  2845  04D0  00A7               	movwf	?_eepByteRead
  2846  04D1  082A               	movf	??_eepByteRead+1,w
  2847  04D2  00A8               	movwf	?_eepByteRead+1
  2848  04D3  2CD8               	goto	l361
  2849  04D4                     l2499:
  2850                           
  2851                           ;Drivers/src/eep.c: 81:      return -1 ;
  2852  04D4  30FF               	movlw	255
  2853  04D5  00A7               	movwf	?_eepByteRead
  2854  04D6  30FF               	movlw	255
  2855  04D7  00A8               	movwf	?_eepByteRead+1
  2856  04D8                     l361:
  2857  04D8  0008               	return
  2858  04D9                     __end_of_eepByteRead:
  2859                           
  2860                           	psect	text13
  2861  07D9                     __ptext13:	
  2862 ;; *************** function _I2C_Transmit *****************
  2863 ;; Defined at:
  2864 ;;		line 132 in file "Drivers/src/pic_i2c.c"
  2865 ;; Parameters:    Size  Location     Type
  2866 ;;  bval            1    wreg     unsigned char 
  2867 ;; Auto vars:     Size  Location     Type
  2868 ;;  bval            1    6[BANK0 ] unsigned char 
  2869 ;; Return value:  Size  Location     Type
  2870 ;;                  1    wreg      char 
  2871 ;; Registers used:
  2872 ;;		wreg, status,2, status,0, pclath, cstack
  2873 ;; Tracked objects:
  2874 ;;		On entry : 0/0
  2875 ;;		On exit  : 0/0
  2876 ;;		Unchanged: 0/0
  2877 ;; Data sizes:     COMMON   BANK0   BANK1   BANK3   BANK2
  2878 ;;      Params:         0       0       0       0       0
  2879 ;;      Locals:         0       1       0       0       0
  2880 ;;      Temps:          0       0       0       0       0
  2881 ;;      Totals:         0       1       0       0       0
  2882 ;;Total ram usage:        1 bytes
  2883 ;; Hardware stack levels used:    1
  2884 ;; Hardware stack levels required when called:    5
  2885 ;; This function calls:
  2886 ;;		_I2C_Halt
  2887 ;; This function is called by:
  2888 ;;		_eepByteWrite
  2889 ;;		_eepByteRead
  2890 ;; This function uses a non-reentrant model
  2891 ;;
  2892                           
  2893                           
  2894                           ;psect for function _I2C_Transmit
  2895  07D9                     _I2C_Transmit:
  2896                           
  2897                           ;incstack = 0
  2898                           ; Regs used in _I2C_Transmit: [wreg+status,2+status,0+pclath+cstack]
  2899                           ;I2C_Transmit@bval stored from wreg
  2900  07D9  1283               	bcf	3,5	;RP0=0, select bank0
  2901  07DA  1303               	bcf	3,6	;RP1=0, select bank0
  2902  07DB  00A6               	movwf	I2C_Transmit@bval
  2903  07DC                     l2409:
  2904                           
  2905                           ;Drivers/src/pic_i2c.c: 132: int8_t I2C_Transmit( uint8_t bval );Drivers/src/pic_i2c.c: 
      +                          133: {;Drivers/src/pic_i2c.c: 134:     I2C_Halt();
  2906  07DC  120A  158A  27C0  120A  118A  	fcall	_I2C_Halt
  2907  07E1                     l2411:
  2908                           
  2909                           ;Drivers/src/pic_i2c.c: 135:     SSPBUF = bval ;
  2910  07E1  1283               	bcf	3,5	;RP0=0, select bank0
  2911  07E2  1303               	bcf	3,6	;RP1=0, select bank0
  2912  07E3  0826               	movf	I2C_Transmit@bval,w
  2913  07E4  0093               	movwf	19	;volatile
  2914  07E5                     l2413:
  2915                           
  2916                           ;Drivers/src/pic_i2c.c: 138:     if ( SSPCON2 & ( 1 << 0x6 ) )
  2917  07E5  1683               	bsf	3,5	;RP0=1, select bank1
  2918  07E6  1303               	bcf	3,6	;RP1=0, select bank1
  2919  07E7  1F11               	btfss	17,6	;volatile
  2920  07E8  2FEA               	goto	u2511
  2921  07E9  2FEB               	goto	u2510
  2922  07EA                     u2511:
  2923  07EA  2FED               	goto	l2419
  2924  07EB                     u2510:
  2925  07EB                     l2415:
  2926                           
  2927                           ;Drivers/src/pic_i2c.c: 139:     {;Drivers/src/pic_i2c.c: 140:         return 1 ;
  2928  07EB  3001               	movlw	1
  2929  07EC  2FEE               	goto	l334
  2930  07ED                     l2419:
  2931                           
  2932                           ;Drivers/src/pic_i2c.c: 142:         return 0 ;
  2933  07ED  3000               	movlw	0
  2934  07EE                     l334:
  2935  07EE  0008               	return
  2936  07EF                     __end_of_I2C_Transmit:
  2937                           
  2938                           	psect	text14
  2939  0FA3                     __ptext14:	
  2940 ;; *************** function _I2C_Stop *****************
  2941 ;; Defined at:
  2942 ;;		line 109 in file "Drivers/src/pic_i2c.c"
  2943 ;; Parameters:    Size  Location     Type
  2944 ;;		None
  2945 ;; Auto vars:     Size  Location     Type
  2946 ;;		None
  2947 ;; Return value:  Size  Location     Type
  2948 ;;                  1    wreg      void 
  2949 ;; Registers used:
  2950 ;;		wreg, status,2, status,0, pclath, cstack
  2951 ;; Tracked objects:
  2952 ;;		On entry : 0/0
  2953 ;;		On exit  : 0/0
  2954 ;;		Unchanged: 0/0
  2955 ;; Data sizes:     COMMON   BANK0   BANK1   BANK3   BANK2
  2956 ;;      Params:         0       0       0       0       0
  2957 ;;      Locals:         0       0       0       0       0
  2958 ;;      Temps:          0       0       0       0       0
  2959 ;;      Totals:         0       0       0       0       0
  2960 ;;Total ram usage:        0 bytes
  2961 ;; Hardware stack levels used:    1
  2962 ;; Hardware stack levels required when called:    5
  2963 ;; This function calls:
  2964 ;;		_I2C_Halt
  2965 ;; This function is called by:
  2966 ;;		_eepByteWrite
  2967 ;;		_eepByteRead
  2968 ;; This function uses a non-reentrant model
  2969 ;;
  2970                           
  2971                           
  2972                           ;psect for function _I2C_Stop
  2973  0FA3                     _I2C_Stop:
  2974  0FA3                     l2401:	
  2975                           ;incstack = 0
  2976                           ; Regs used in _I2C_Stop: [wreg+status,2+status,0+pclath+cstack]
  2977                           
  2978                           
  2979                           ;Drivers/src/pic_i2c.c: 111:         I2C_Halt();
  2980  0FA3  120A  158A  27C0  120A  158A  	fcall	_I2C_Halt
  2981  0FA8                     l2403:
  2982                           
  2983                           ;Drivers/src/pic_i2c.c: 112:         SSPCON2 |= ( 1 << 0x2 );
  2984  0FA8  1683               	bsf	3,5	;RP0=1, select bank1
  2985  0FA9  1303               	bcf	3,6	;RP1=0, select bank1
  2986  0FAA  1511               	bsf	17,2	;volatile
  2987  0FAB                     l327:
  2988  0FAB  0008               	return
  2989  0FAC                     __end_of_I2C_Stop:
  2990                           
  2991                           	psect	text15
  2992  0F9A                     __ptext15:	
  2993 ;; *************** function _I2C_Start *****************
  2994 ;; Defined at:
  2995 ;;		line 100 in file "Drivers/src/pic_i2c.c"
  2996 ;; Parameters:    Size  Location     Type
  2997 ;;		None
  2998 ;; Auto vars:     Size  Location     Type
  2999 ;;		None
  3000 ;; Return value:  Size  Location     Type
  3001 ;;                  1    wreg      void 
  3002 ;; Registers used:
  3003 ;;		wreg, status,2, status,0, pclath, cstack
  3004 ;; Tracked objects:
  3005 ;;		On entry : 0/0
  3006 ;;		On exit  : 0/0
  3007 ;;		Unchanged: 0/0
  3008 ;; Data sizes:     COMMON   BANK0   BANK1   BANK3   BANK2
  3009 ;;      Params:         0       0       0       0       0
  3010 ;;      Locals:         0       0       0       0       0
  3011 ;;      Temps:          0       0       0       0       0
  3012 ;;      Totals:         0       0       0       0       0
  3013 ;;Total ram usage:        0 bytes
  3014 ;; Hardware stack levels used:    1
  3015 ;; Hardware stack levels required when called:    5
  3016 ;; This function calls:
  3017 ;;		_I2C_Halt
  3018 ;; This function is called by:
  3019 ;;		_eepByteWrite
  3020 ;;		_eepByteRead
  3021 ;; This function uses a non-reentrant model
  3022 ;;
  3023                           
  3024                           
  3025                           ;psect for function _I2C_Start
  3026  0F9A                     _I2C_Start:
  3027  0F9A                     l2397:	
  3028                           ;incstack = 0
  3029                           ; Regs used in _I2C_Start: [wreg+status,2+status,0+pclath+cstack]
  3030                           
  3031                           
  3032                           ;Drivers/src/pic_i2c.c: 102:     I2C_Halt();
  3033  0F9A  120A  158A  27C0  120A  158A  	fcall	_I2C_Halt
  3034  0F9F                     l2399:
  3035                           
  3036                           ;Drivers/src/pic_i2c.c: 103:     SSPCON2 |= ( 1 << 0x0 );
  3037  0F9F  1683               	bsf	3,5	;RP0=1, select bank1
  3038  0FA0  1303               	bcf	3,6	;RP1=0, select bank1
  3039  0FA1  1411               	bsf	17,0	;volatile
  3040  0FA2                     l324:
  3041  0FA2  0008               	return
  3042  0FA3                     __end_of_I2C_Start:
  3043                           
  3044                           	psect	text16
  3045  0F91                     __ptext16:	
  3046 ;; *************** function _I2C_Restart *****************
  3047 ;; Defined at:
  3048 ;;		line 119 in file "Drivers/src/pic_i2c.c"
  3049 ;; Parameters:    Size  Location     Type
  3050 ;;		None
  3051 ;; Auto vars:     Size  Location     Type
  3052 ;;		None
  3053 ;; Return value:  Size  Location     Type
  3054 ;;                  1    wreg      void 
  3055 ;; Registers used:
  3056 ;;		wreg, status,2, status,0, pclath, cstack
  3057 ;; Tracked objects:
  3058 ;;		On entry : 0/0
  3059 ;;		On exit  : 0/0
  3060 ;;		Unchanged: 0/0
  3061 ;; Data sizes:     COMMON   BANK0   BANK1   BANK3   BANK2
  3062 ;;      Params:         0       0       0       0       0
  3063 ;;      Locals:         0       0       0       0       0
  3064 ;;      Temps:          0       0       0       0       0
  3065 ;;      Totals:         0       0       0       0       0
  3066 ;;Total ram usage:        0 bytes
  3067 ;; Hardware stack levels used:    1
  3068 ;; Hardware stack levels required when called:    5
  3069 ;; This function calls:
  3070 ;;		_I2C_Halt
  3071 ;; This function is called by:
  3072 ;;		_eepByteRead
  3073 ;; This function uses a non-reentrant model
  3074 ;;
  3075                           
  3076                           
  3077                           ;psect for function _I2C_Restart
  3078  0F91                     _I2C_Restart:
  3079  0F91                     l2405:	
  3080                           ;incstack = 0
  3081                           ; Regs used in _I2C_Restart: [wreg+status,2+status,0+pclath+cstack]
  3082                           
  3083                           
  3084                           ;Drivers/src/pic_i2c.c: 121:         I2C_Halt();
  3085  0F91  120A  158A  27C0  120A  158A  	fcall	_I2C_Halt
  3086  0F96                     l2407:
  3087                           
  3088                           ;Drivers/src/pic_i2c.c: 122:         SSPCON2 |= ( 1 << 0x1 );
  3089  0F96  1683               	bsf	3,5	;RP0=1, select bank1
  3090  0F97  1303               	bcf	3,6	;RP1=0, select bank1
  3091  0F98  1491               	bsf	17,1	;volatile
  3092  0F99                     l330:
  3093  0F99  0008               	return
  3094  0F9A                     __end_of_I2C_Restart:
  3095                           
  3096                           	psect	text17
  3097  079A                     __ptext17:	
  3098 ;; *************** function _I2C_Receive_NACK *****************
  3099 ;; Defined at:
  3100 ;;		line 181 in file "Drivers/src/pic_i2c.c"
  3101 ;; Parameters:    Size  Location     Type
  3102 ;;		None
  3103 ;; Auto vars:     Size  Location     Type
  3104 ;;  temp            1    6[BANK0 ] unsigned char 
  3105 ;; Return value:  Size  Location     Type
  3106 ;;                  1    wreg      unsigned char 
  3107 ;; Registers used:
  3108 ;;		wreg, status,2, status,0, btemp+1, pclath, cstack
  3109 ;; Tracked objects:
  3110 ;;		On entry : 0/0
  3111 ;;		On exit  : 0/0
  3112 ;;		Unchanged: 0/0
  3113 ;; Data sizes:     COMMON   BANK0   BANK1   BANK3   BANK2
  3114 ;;      Params:         0       0       0       0       0
  3115 ;;      Locals:         0       1       0       0       0
  3116 ;;      Temps:          0       0       0       0       0
  3117 ;;      Totals:         0       1       0       0       0
  3118 ;;Total ram usage:        1 bytes
  3119 ;; Hardware stack levels used:    1
  3120 ;; Hardware stack levels required when called:    5
  3121 ;; This function calls:
  3122 ;;		_I2C_Halt
  3123 ;; This function is called by:
  3124 ;;		_eepByteRead
  3125 ;; This function uses a non-reentrant model
  3126 ;;
  3127                           
  3128                           
  3129                           ;psect for function _I2C_Receive_NACK
  3130  079A                     _I2C_Receive_NACK:
  3131  079A                     l2423:	
  3132                           ;incstack = 0
  3133                           ; Regs used in _I2C_Receive_NACK: [wreg+status,2+status,0+btemp+1+pclath+cstack]
  3134                           
  3135                           
  3136                           ;Drivers/src/pic_i2c.c: 184:     uint8_t temp ;;Drivers/src/pic_i2c.c: 185:     I2C_Halt
      +                          ();
  3137  079A  120A  158A  27C0  120A  118A  	fcall	_I2C_Halt
  3138  079F                     l2425:
  3139                           
  3140                           ;Drivers/src/pic_i2c.c: 187:     SSPCON2 |= ( 1 << 0x3 );
  3141  079F  1683               	bsf	3,5	;RP0=1, select bank1
  3142  07A0  1303               	bcf	3,6	;RP1=0, select bank1
  3143  07A1  1591               	bsf	17,3	;volatile
  3144                           
  3145                           ;Drivers/src/pic_i2c.c: 189:     I2C_Halt();
  3146  07A2  120A  158A  27C0  120A  118A  	fcall	_I2C_Halt
  3147  07A7                     l2427:
  3148                           
  3149                           ;Drivers/src/pic_i2c.c: 190:     temp = SSPBUF ;
  3150  07A7  1283               	bcf	3,5	;RP0=0, select bank0
  3151  07A8  1303               	bcf	3,6	;RP1=0, select bank0
  3152  07A9  0813               	movf	19,w	;volatile
  3153  07AA  00FF               	movwf	btemp+1
  3154  07AB  087F               	movf	btemp+1,w
  3155  07AC  00A6               	movwf	I2C_Receive_NACK@temp
  3156  07AD                     l2429:
  3157                           
  3158                           ;Drivers/src/pic_i2c.c: 191:     I2C_Halt();
  3159  07AD  120A  158A  27C0  120A  118A  	fcall	_I2C_Halt
  3160  07B2                     l2431:
  3161                           
  3162                           ;Drivers/src/pic_i2c.c: 193:     SSPCON2 |= ( 1 << 0x5 );
  3163  07B2  1683               	bsf	3,5	;RP0=1, select bank1
  3164  07B3  1303               	bcf	3,6	;RP1=0, select bank1
  3165  07B4  1691               	bsf	17,5	;volatile
  3166  07B5                     l2433:
  3167                           
  3168                           ;Drivers/src/pic_i2c.c: 194:     SSPCON2 |= ( 1 << 0x4 );
  3169  07B5  1611               	bsf	17,4	;volatile
  3170  07B6                     l2435:
  3171                           
  3172                           ;Drivers/src/pic_i2c.c: 195:     return temp ;
  3173  07B6  1283               	bcf	3,5	;RP0=0, select bank0
  3174  07B7  1303               	bcf	3,6	;RP1=0, select bank0
  3175  07B8  0826               	movf	I2C_Receive_NACK@temp,w
  3176  07B9                     l343:
  3177  07B9  0008               	return
  3178  07BA                     __end_of_I2C_Receive_NACK:
  3179                           
  3180                           	psect	text18
  3181  0FC0                     __ptext18:	
  3182 ;; *************** function _I2C_Halt *****************
  3183 ;; Defined at:
  3184 ;;		line 92 in file "Drivers/src/pic_i2c.c"
  3185 ;; Parameters:    Size  Location     Type
  3186 ;;		None
  3187 ;; Auto vars:     Size  Location     Type
  3188 ;;		None
  3189 ;; Return value:  Size  Location     Type
  3190 ;;                  1    wreg      void 
  3191 ;; Registers used:
  3192 ;;		wreg, status,2
  3193 ;; Tracked objects:
  3194 ;;		On entry : 0/0
  3195 ;;		On exit  : 0/0
  3196 ;;		Unchanged: 0/0
  3197 ;; Data sizes:     COMMON   BANK0   BANK1   BANK3   BANK2
  3198 ;;      Params:         0       0       0       0       0
  3199 ;;      Locals:         0       0       0       0       0
  3200 ;;      Temps:          0       0       0       0       0
  3201 ;;      Totals:         0       0       0       0       0
  3202 ;;Total ram usage:        0 bytes
  3203 ;; Hardware stack levels used:    1
  3204 ;; Hardware stack levels required when called:    4
  3205 ;; This function calls:
  3206 ;;		Nothing
  3207 ;; This function is called by:
  3208 ;;		_I2C_Start
  3209 ;;		_I2C_Stop
  3210 ;;		_I2C_Restart
  3211 ;;		_I2C_Transmit
  3212 ;;		_I2C_Receive_NACK
  3213 ;;		_I2C_Receive_ACK
  3214 ;; This function uses a non-reentrant model
  3215 ;;
  3216                           
  3217                           
  3218                           ;psect for function _I2C_Halt
  3219  0FC0                     _I2C_Halt:
  3220  0FC0                     l2275:	
  3221                           ;incstack = 0
  3222                           ; Regs used in _I2C_Halt: [wreg+status,2]
  3223                           
  3224  0FC0                     l318:	
  3225                           ;Drivers/src/pic_i2c.c: 94:     while ( (SSPSTAT&( 1 << 0x2)) || ( SSPCON2 & (0x10 | 0x1
      +                           | 0x2 | 0x8 | 0x4)) );
  3226                           
  3227  0FC0  1683               	bsf	3,5	;RP0=1, select bank1
  3228  0FC1  1303               	bcf	3,6	;RP1=0, select bank1
  3229  0FC2  1914               	btfsc	20,2	;volatile
  3230  0FC3  2FC5               	goto	u2181
  3231  0FC4  2FC6               	goto	u2180
  3232  0FC5                     u2181:
  3233  0FC5  2FC0               	goto	l318
  3234  0FC6                     u2180:
  3235  0FC6                     l2277:
  3236  0FC6  0811               	movf	17,w	;volatile
  3237  0FC7  391F               	andlw	31
  3238  0FC8  1D03               	btfss	3,2
  3239  0FC9  2FCB               	goto	u2191
  3240  0FCA  2FCC               	goto	u2190
  3241  0FCB                     u2191:
  3242  0FCB  2FC0               	goto	l318
  3243  0FCC                     u2190:
  3244  0FCC                     l321:
  3245  0FCC  0008               	return
  3246  0FCD                     __end_of_I2C_Halt:
  3247                           
  3248                           	psect	text19
  3249  0731                     __ptext19:	
  3250 ;; *************** function _ISR *****************
  3251 ;; Defined at:
  3252 ;;		line 295 in file "src/pic_int.c"
  3253 ;; Parameters:    Size  Location     Type
  3254 ;;		None
  3255 ;; Auto vars:     Size  Location     Type
  3256 ;;		None
  3257 ;; Return value:  Size  Location     Type
  3258 ;;                  1    wreg      void 
  3259 ;; Registers used:
  3260 ;;		wreg, fsr0l, fsr0h, status,2, status,0, btemp+1, pclath, cstack
  3261 ;; Tracked objects:
  3262 ;;		On entry : 0/0
  3263 ;;		On exit  : 0/0
  3264 ;;		Unchanged: 0/0
  3265 ;; Data sizes:     COMMON   BANK0   BANK1   BANK3   BANK2
  3266 ;;      Params:         0       0       0       0       0
  3267 ;;      Locals:         0       0       0       0       0
  3268 ;;      Temps:          0       4       0       0       0
  3269 ;;      Totals:         0       4       0       0       0
  3270 ;;Total ram usage:        4 bytes
  3271 ;; Hardware stack levels used:    1
  3272 ;; Hardware stack levels required when called:    3
  3273 ;; This function calls:
  3274 ;;		_ADC_IRQ_Handler
  3275 ;;		_TIMER1_IRQ_Handler
  3276 ;;		_TIMER2_IRQ_Handler
  3277 ;; This function is called by:
  3278 ;;		Interrupt level 1
  3279 ;; This function uses a non-reentrant model
  3280 ;;
  3281                           
  3282                           
  3283                           ;psect for function _ISR
  3284  0731                     _ISR:
  3285  0731                     i1l2231:
  3286                           
  3287                           ;src/pic_int.c: 300:     if ( PIR1 & ( 1 << 0x1 ) )
  3288  0731  1C8C               	btfss	12,1	;volatile
  3289  0732  2F34               	goto	u214_21
  3290  0733  2F35               	goto	u214_20
  3291  0734                     u214_21:
  3292  0734  2F41               	goto	i1l249
  3293  0735                     u214_20:
  3294  0735                     i1l2233:
  3295                           
  3296                           ;src/pic_int.c: 301:     {;src/pic_int.c: 304:         TIMER2_IRQ_Handler();
  3297  0735  120A  118A  266A  120A  118A  	fcall	_TIMER2_IRQ_Handler
  3298  073A                     i1l2235:
  3299                           
  3300                           ;src/pic_int.c: 306:         PIR1&= ~ ( 1 << 0x1 );
  3301  073A  30FD               	movlw	253
  3302  073B  00FF               	movwf	btemp+1
  3303  073C  087F               	movf	btemp+1,w
  3304  073D  1283               	bcf	3,5	;RP0=0, select bank0
  3305  073E  1303               	bcf	3,6	;RP1=0, select bank0
  3306  073F  058C               	andwf	12,f	;volatile
  3307                           
  3308                           ;src/pic_int.c: 308:     }
  3309  0740  2F5C               	goto	i1l254
  3310  0741                     i1l249:	
  3311                           ;src/pic_int.c: 309:     else if ( PIR1 & ( 1 << 0x0 ) )
  3312                           
  3313  0741  1C0C               	btfss	12,0	;volatile
  3314  0742  2F44               	goto	u215_21
  3315  0743  2F45               	goto	u215_20
  3316  0744                     u215_21:
  3317  0744  2F4F               	goto	i1l251
  3318  0745                     u215_20:
  3319  0745                     i1l2237:
  3320                           
  3321                           ;src/pic_int.c: 310:     {;src/pic_int.c: 312:         PIR1&= ~( 1 << 0x0 );
  3322  0745  30FE               	movlw	254
  3323  0746  00FF               	movwf	btemp+1
  3324  0747  087F               	movf	btemp+1,w
  3325  0748  058C               	andwf	12,f	;volatile
  3326  0749                     i1l2239:
  3327                           
  3328                           ;src/pic_int.c: 313:         TIMER1_IRQ_Handler();
  3329  0749  120A  118A  203C  120A  118A  	fcall	_TIMER1_IRQ_Handler
  3330                           
  3331                           ;src/pic_int.c: 315:     }
  3332  074E  2F5C               	goto	i1l254
  3333  074F                     i1l251:	
  3334                           ;src/pic_int.c: 316:     else if ( PIR1 & ( 1 << 0x6 ))
  3335                           
  3336  074F  1F0C               	btfss	12,6	;volatile
  3337  0750  2F52               	goto	u216_21
  3338  0751  2F53               	goto	u216_20
  3339  0752                     u216_21:
  3340  0752  2F5C               	goto	i1l254
  3341  0753                     u216_20:
  3342  0753                     i1l2241:
  3343                           
  3344                           ;src/pic_int.c: 317:     {;src/pic_int.c: 319:         PIR1&= ~( 1 << 0x6 );
  3345  0753  30BF               	movlw	191
  3346  0754  00FF               	movwf	btemp+1
  3347  0755  087F               	movf	btemp+1,w
  3348  0756  058C               	andwf	12,f	;volatile
  3349  0757                     i1l2243:
  3350                           
  3351                           ;src/pic_int.c: 320:         ADC_IRQ_Handler();
  3352  0757  120A  118A  2164  120A  118A  	fcall	_ADC_IRQ_Handler
  3353  075C                     i1l254:
  3354  075C  1283               	bcf	3,5	;RP0=0, select bank0
  3355  075D  1303               	bcf	3,6	;RP1=0, select bank0
  3356  075E  0825               	movf	??_ISR+3,w
  3357  075F  00FF               	movwf	btemp+1
  3358  0760  0824               	movf	??_ISR+2,w
  3359  0761  008A               	movwf	10
  3360  0762  0823               	movf	??_ISR+1,w
  3361  0763  0084               	movwf	4
  3362  0764  0E22               	swapf	??_ISR^0,w
  3363  0765  0083               	movwf	3
  3364  0766  0EFE               	swapf	btemp,f
  3365  0767  0E7E               	swapf	btemp,w
  3366  0768  0009               	retfie
  3367  0769                     __end_of_ISR:
  3368                           
  3369                           	psect	intentry
  3370  0004                     __pintentry:	
  3371                           ;incstack = 0
  3372                           ; Regs used in _ISR: [wreg-fsr0h+status,2+status,0+btemp+1+pclath+cstack]
  3373                           
  3374  0004                     interrupt_function:
  3375  007E                     saved_w	set	btemp
  3376  0004  00FE               	movwf	btemp
  3377  0005  0E03               	swapf	3,w
  3378  0006  1283               	bcf	3,5	;RP0=0, select bank0
  3379  0007  1303               	bcf	3,6	;RP1=0, select bank0
  3380  0008  00A2               	movwf	??_ISR
  3381  0009  0804               	movf	4,w
  3382  000A  00A3               	movwf	??_ISR+1
  3383  000B  080A               	movf	10,w
  3384  000C  00A4               	movwf	??_ISR+2
  3385  000D  087F               	movf	btemp+1,w
  3386  000E  00A5               	movwf	??_ISR+3
  3387  000F  120A  118A  2F31   	ljmp	_ISR
  3388                           
  3389                           	psect	text20
  3390  066A                     __ptext20:	
  3391 ;; *************** function _TIMER2_IRQ_Handler *****************
  3392 ;; Defined at:
  3393 ;;		line 34 in file "src/pic_int.c"
  3394 ;; Parameters:    Size  Location     Type
  3395 ;;		None
  3396 ;; Auto vars:     Size  Location     Type
  3397 ;;		None
  3398 ;; Return value:  Size  Location     Type
  3399 ;;                  1    wreg      void 
  3400 ;; Registers used:
  3401 ;;		wreg, fsr0l, fsr0h, status,2, status,0, btemp+1, pclath
  3402 ;; Tracked objects:
  3403 ;;		On entry : 0/0
  3404 ;;		On exit  : 0/0
  3405 ;;		Unchanged: 0/0
  3406 ;; Data sizes:     COMMON   BANK0   BANK1   BANK3   BANK2
  3407 ;;      Params:         0       0       0       0       0
  3408 ;;      Locals:         0       0       0       0       0
  3409 ;;      Temps:          1       0       0       0       0
  3410 ;;      Totals:         1       0       0       0       0
  3411 ;;Total ram usage:        1 bytes
  3412 ;; Hardware stack levels used:    2
  3413 ;; This function calls:
  3414 ;;		Nothing
  3415 ;; This function is called by:
  3416 ;;		_ISR
  3417 ;; This function uses a non-reentrant model
  3418 ;;
  3419                           
  3420                           
  3421                           ;psect for function _TIMER2_IRQ_Handler
  3422  066A                     _TIMER2_IRQ_Handler:
  3423  066A                     i1l1967:	
  3424                           ;incstack = 0
  3425                           ; Regs used in _TIMER2_IRQ_Handler: [wreg-fsr0h+status,2+status,0+btemp+1+pclath]
  3426                           
  3427                           
  3428                           ;src/pic_int.c: 38:     const uint8_t decode[10] = { 0B00111111 , 0B00000110 , 0B0101101
      +                          1 , 0B01001111 ,;src/pic_int.c: 42:     static uint8_t digit = 0 ;;src/pic_int.c: 45:   
      +                            if ( display_state == 1 && device_state == 1 ){
  3429  066A  1283               	bcf	3,5	;RP0=0, select bank0
  3430  066B  1303               	bcf	3,6	;RP1=0, select bank0
  3431  066C  035C               	decf	_display_state,w	;volatile
  3432  066D  1D03               	btfss	3,2
  3433  066E  2E70               	goto	u157_21
  3434  066F  2E71               	goto	u157_20
  3435  0670                     u157_21:
  3436  0670  2EA5               	goto	i1l1989
  3437  0671                     u157_20:
  3438  0671                     i1l1969:
  3439  0671  035B               	decf	_device_state,w	;volatile
  3440  0672  1D03               	btfss	3,2
  3441  0673  2E75               	goto	u158_21
  3442  0674  2E76               	goto	u158_20
  3443  0675                     u158_21:
  3444  0675  2EA5               	goto	i1l1989
  3445  0676                     u158_20:
  3446  0676                     i1l1971:
  3447                           
  3448                           ;src/pic_int.c: 46:     if ( !digit ){
  3449  0676  0858               	movf	TIMER2_IRQ_Handler@digit,w
  3450  0677  1D03               	btfss	3,2
  3451  0678  2E7A               	goto	u159_21
  3452  0679  2E7B               	goto	u159_20
  3453  067A                     u159_21:
  3454  067A  2E8D               	goto	i1l1981
  3455  067B                     u159_20:
  3456  067B                     i1l1973:
  3457                           
  3458                           ;src/pic_int.c: 48:     PORTA |= ( 1 << 5 ); PORTA &= ~( 1 << 4);
  3459  067B  1685               	bsf	5,5	;volatile
  3460  067C                     i1l1975:
  3461  067C  30EF               	movlw	239
  3462  067D  00FF               	movwf	btemp+1
  3463  067E  087F               	movf	btemp+1,w
  3464  067F  0585               	andwf	5,f	;volatile
  3465  0680                     i1l1977:
  3466                           
  3467                           ;src/pic_int.c: 52:     PORTD = decode[Seg_Val&0X0F] ;;
  3468  0680  0866               	movf	_Seg_Val,w	;volatile
  3469  0681  390F               	andlw	15
  3470  0682  3E01               	addlw	low ((TIMER2_IRQ_Handler@decode-__stringbase)| (0+32768))
  3471  0683  0084               	movwf	4
  3472  0684  120A  118A  27EF  120A  118A  	fcall	stringdir
  3473  0689  0088               	movwf	8	;volatile
  3474  068A                     i1l1979:
  3475                           
  3476                           ;src/pic_int.c: 53:     digit = 1 ;
  3477  068A  01D8               	clrf	TIMER2_IRQ_Handler@digit
  3478  068B  0AD8               	incf	TIMER2_IRQ_Handler@digit,f
  3479                           
  3480                           ;src/pic_int.c: 54:     }
  3481  068C  2EAD               	goto	i1l173
  3482  068D                     i1l1981:
  3483                           
  3484                           ;src/pic_int.c: 58:     PORTA &= ~( 1 << 5 ); PORTA |= ( 1 << 4 );
  3485  068D  30DF               	movlw	223
  3486  068E  00FF               	movwf	btemp+1
  3487  068F  087F               	movf	btemp+1,w
  3488  0690  0585               	andwf	5,f	;volatile
  3489  0691                     i1l1983:
  3490  0691  1605               	bsf	5,4	;volatile
  3491  0692                     i1l1985:
  3492                           
  3493                           ;src/pic_int.c: 61:     PORTD = decode[Seg_Val>>4] ;;
  3494  0692  0866               	movf	_Seg_Val,w	;volatile
  3495  0693  00F0               	movwf	??_TIMER2_IRQ_Handler
  3496  0694  3004               	movlw	4
  3497  0695                     u160_25:
  3498  0695  1003               	clrc
  3499  0696  0CF0               	rrf	??_TIMER2_IRQ_Handler,f
  3500  0697  3EFF               	addlw	-1
  3501  0698  1D03               	skipz
  3502  0699  2E95               	goto	u160_25
  3503  069A  0870               	movf	??_TIMER2_IRQ_Handler,w
  3504  069B  3E01               	addlw	low ((TIMER2_IRQ_Handler@decode-__stringbase)| (0+32768))
  3505  069C  0084               	movwf	4
  3506  069D  120A  118A  27EF  120A  118A  	fcall	stringdir
  3507  06A2  0088               	movwf	8	;volatile
  3508  06A3                     i1l1987:
  3509                           
  3510                           ;src/pic_int.c: 62:     digit = 0 ;
  3511  06A3  01D8               	clrf	TIMER2_IRQ_Handler@digit
  3512  06A4  2EAD               	goto	i1l173
  3513  06A5                     i1l1989:
  3514                           
  3515                           ;src/pic_int.c: 69:         PORTA &= ~( 1 << 5 ); PORTA &= ~ ( 1 << 4 );
  3516  06A5  30DF               	movlw	223
  3517  06A6  00FF               	movwf	btemp+1
  3518  06A7  087F               	movf	btemp+1,w
  3519  06A8  0585               	andwf	5,f	;volatile
  3520  06A9  30EF               	movlw	239
  3521  06AA  00FF               	movwf	btemp+1
  3522  06AB  087F               	movf	btemp+1,w
  3523  06AC  0585               	andwf	5,f	;volatile
  3524  06AD                     i1l173:
  3525  06AD  0008               	return
  3526  06AE                     __end_of_TIMER2_IRQ_Handler:
  3527                           
  3528                           	psect	text21
  3529  003C                     __ptext21:	
  3530 ;; *************** function _TIMER1_IRQ_Handler *****************
  3531 ;; Defined at:
  3532 ;;		line 78 in file "src/pic_int.c"
  3533 ;; Parameters:    Size  Location     Type
  3534 ;;		None
  3535 ;; Auto vars:     Size  Location     Type
  3536 ;;		None
  3537 ;; Return value:  Size  Location     Type
  3538 ;;                  1    wreg      void 
  3539 ;; Registers used:
  3540 ;;		wreg, status,2, status,0, btemp+1, pclath, cstack
  3541 ;; Tracked objects:
  3542 ;;		On entry : 0/0
  3543 ;;		On exit  : 0/0
  3544 ;;		Unchanged: 0/0
  3545 ;; Data sizes:     COMMON   BANK0   BANK1   BANK3   BANK2
  3546 ;;      Params:         0       0       0       0       0
  3547 ;;      Locals:         0       0       0       0       0
  3548 ;;      Temps:          0       2       0       0       0
  3549 ;;      Totals:         0       2       0       0       0
  3550 ;;Total ram usage:        2 bytes
  3551 ;; Hardware stack levels used:    1
  3552 ;; Hardware stack levels required when called:    2
  3553 ;; This function calls:
  3554 ;;		_WriteSegVal
  3555 ;;		i1_ADC_StartConv_NB
  3556 ;; This function is called by:
  3557 ;;		_ISR
  3558 ;; This function uses a non-reentrant model
  3559 ;;
  3560                           
  3561                           
  3562                           ;psect for function _TIMER1_IRQ_Handler
  3563  003C                     _TIMER1_IRQ_Handler:
  3564  003C                     i1l1991:	
  3565                           ;incstack = 0
  3566                           ; Regs used in _TIMER1_IRQ_Handler: [wreg+status,2+status,0+btemp+1+pclath+cstack]
  3567                           
  3568                           
  3569                           ;src/pic_int.c: 81:     static uint8_t tim1_ovf_count = 0 ;;src/pic_int.c: 82:     stati
      +                          c uint8_t temp_reading_count = 0 ;;src/pic_int.c: 83:     static uint8_t last_clicked_bu
      +                          tton = 0 ;;src/pic_int.c: 84:     static uint8_t sig_blink_count = 0 ;;src/pic_int.c: 85
      +                          :     static uint8_t sig_blink_toggle = 0 ;;src/pic_int.c: 86:     static uint8_t temp_e
      +                          nter_counter = 0 ;;src/pic_int.c: 87:     static uint8_t tst ;;src/pic_int.c: 92:     if
      +                           ( !(PORTB & ( 1 << last_clicked_button )) && last_clicked_button != 0 )
  3570  003C  3001               	movlw	1
  3571  003D  1283               	bcf	3,5	;RP0=0, select bank0
  3572  003E  1303               	bcf	3,6	;RP1=0, select bank0
  3573  003F  00A0               	movwf	??_TIMER1_IRQ_Handler
  3574  0040  0A55               	incf	TIMER1_IRQ_Handler@last_clicked_button,w
  3575  0041  2844               	goto	u161_24
  3576  0042                     u161_25:
  3577  0042  1003               	clrc
  3578  0043  0DA0               	rlf	??_TIMER1_IRQ_Handler,f
  3579  0044                     u161_24:
  3580  0044  3EFF               	addlw	-1
  3581  0045  1D03               	skipz
  3582  0046  2842               	goto	u161_25
  3583  0047  0820               	movf	??_TIMER1_IRQ_Handler,w
  3584  0048  0506               	andwf	6,w	;volatile
  3585  0049  1D03               	btfss	3,2
  3586  004A  284C               	goto	u162_21
  3587  004B  284D               	goto	u162_20
  3588  004C                     u162_21:
  3589  004C  2853               	goto	i1l1997
  3590  004D                     u162_20:
  3591  004D                     i1l1993:
  3592  004D  0855               	movf	TIMER1_IRQ_Handler@last_clicked_button,w
  3593  004E  1903               	btfsc	3,2
  3594  004F  2851               	goto	u163_21
  3595  0050  2852               	goto	u163_20
  3596  0051                     u163_21:
  3597  0051  2853               	goto	i1l1997
  3598  0052                     u163_20:
  3599  0052  28E8               	goto	i1l2047
  3600  0053                     i1l1997:
  3601                           
  3602                           ;src/pic_int.c: 102:      last_clicked_button = 0 ;
  3603  0053  01D5               	clrf	TIMER1_IRQ_Handler@last_clicked_button
  3604  0054                     i1l1999:
  3605                           
  3606                           ;src/pic_int.c: 104:     if ( !(PORTB & ( 1 << 3 )) )
  3607  0054  1986               	btfsc	6,3	;volatile
  3608  0055  2857               	goto	u164_21
  3609  0056  2858               	goto	u164_20
  3610  0057                     u164_21:
  3611  0057  286B               	goto	i1l192
  3612  0058                     u164_20:
  3613  0058                     i1l2001:
  3614                           
  3615                           ;src/pic_int.c: 105:     {;src/pic_int.c: 106:         if ( device_state == 0 )
  3616  0058  085B               	movf	_device_state,w	;volatile
  3617  0059  1D03               	btfss	3,2
  3618  005A  285C               	goto	u165_21
  3619  005B  285D               	goto	u165_20
  3620  005C                     u165_21:
  3621  005C  2862               	goto	i1l2005
  3622  005D                     u165_20:
  3623  005D                     i1l2003:
  3624                           
  3625                           ;src/pic_int.c: 107:         {;src/pic_int.c: 108:             Current_Task = 2 ;
  3626  005D  3002               	movlw	2
  3627  005E  00FF               	movwf	btemp+1
  3628  005F  087F               	movf	btemp+1,w
  3629  0060  00DD               	movwf	_Current_Task	;volatile
  3630                           
  3631                           ;src/pic_int.c: 111:         }
  3632  0061  2866               	goto	i1l194
  3633  0062                     i1l2005:
  3634                           
  3635                           ;src/pic_int.c: 114:             Current_Task = 1 ;
  3636  0062  3001               	movlw	1
  3637  0063  00FF               	movwf	btemp+1
  3638  0064  087F               	movf	btemp+1,w
  3639  0065  00DD               	movwf	_Current_Task	;volatile
  3640  0066                     i1l194:	
  3641                           ;src/pic_int.c: 116:         }
  3642                           
  3643                           
  3644                           ;src/pic_int.c: 118:         last_clicked_button = 3 ;
  3645  0066  3003               	movlw	3
  3646  0067  00FF               	movwf	btemp+1
  3647  0068  087F               	movf	btemp+1,w
  3648  0069  00D5               	movwf	TIMER1_IRQ_Handler@last_clicked_button
  3649                           
  3650                           ;src/pic_int.c: 120:     }
  3651  006A  28E8               	goto	i1l2047
  3652  006B                     i1l192:	
  3653                           ;src/pic_int.c: 121:     else if ( !(PORTB & ( 1 << 4 ) ) )
  3654                           
  3655  006B  1A06               	btfsc	6,4	;volatile
  3656  006C  286E               	goto	u166_21
  3657  006D  286F               	goto	u166_20
  3658  006E                     u166_21:
  3659  006E  28AB               	goto	i1l196
  3660  006F                     u166_20:
  3661  006F                     i1l2007:
  3662                           
  3663                           ;src/pic_int.c: 122:     {;src/pic_int.c: 123:         if ( device_state == 1 )
  3664  006F  035B               	decf	_device_state,w	;volatile
  3665  0070  1D03               	btfss	3,2
  3666  0071  2873               	goto	u167_21
  3667  0072  2874               	goto	u167_20
  3668  0073                     u167_21:
  3669  0073  28A4               	goto	i1l2025
  3670  0074                     u167_20:
  3671  0074                     i1l2009:
  3672                           
  3673                           ;src/pic_int.c: 124:         {;src/pic_int.c: 125:              if ( display_mode == 1 )
  3674  0074  0368               	decf	_display_mode,w	;volatile
  3675  0075  1D03               	btfss	3,2
  3676  0076  2878               	goto	u168_21
  3677  0077  2879               	goto	u168_20
  3678  0078                     u168_21:
  3679  0078  2883               	goto	i1l2017
  3680  0079                     u168_20:
  3681  0079                     i1l2011:
  3682                           
  3683                           ;src/pic_int.c: 126:             {;src/pic_int.c: 127:                 display_mode = 2;
      +                          temp_enter_counter = 0 ;
  3684  0079  3002               	movlw	2
  3685  007A  00FF               	movwf	btemp+1
  3686  007B  087F               	movf	btemp+1,w
  3687  007C  00E8               	movwf	_display_mode	;volatile
  3688  007D                     i1l2013:
  3689  007D  01D2               	clrf	TIMER1_IRQ_Handler@temp_enter_counter
  3690  007E                     i1l2015:
  3691                           
  3692                           ;src/pic_int.c: 128:                 tst = desired_temp;
  3693  007E  0867               	movf	_desired_temp,w	;volatile
  3694  007F  00FF               	movwf	btemp+1
  3695  0080  087F               	movf	btemp+1,w
  3696  0081  00D1               	movwf	TIMER1_IRQ_Handler@tst
  3697                           
  3698                           ;src/pic_int.c: 129:             }
  3699  0082  28A4               	goto	i1l2025
  3700  0083                     i1l2017:
  3701  0083  3002               	movlw	2
  3702  0084  0668               	xorwf	_display_mode,w	;volatile
  3703  0085  1D03               	btfss	3,2
  3704  0086  2888               	goto	u169_21
  3705  0087  2889               	goto	u169_20
  3706  0088                     u169_21:
  3707  0088  28A4               	goto	i1l2025
  3708  0089                     u169_20:
  3709  0089                     i1l2019:
  3710  0089  0867               	movf	_desired_temp,w	;volatile
  3711  008A  3E05               	addlw	5
  3712  008B  00A0               	movwf	??_TIMER1_IRQ_Handler
  3713  008C  3000               	movlw	0
  3714  008D  1803               	skipnc
  3715  008E  3001               	movlw	1
  3716  008F  00A1               	movwf	??_TIMER1_IRQ_Handler+1
  3717  0090  0821               	movf	??_TIMER1_IRQ_Handler+1,w
  3718  0091  3A80               	xorlw	128
  3719  0092  00FF               	movwf	btemp+1
  3720  0093  3080               	movlw	128
  3721  0094  027F               	subwf	btemp+1,w
  3722  0095  1D03               	skipz
  3723  0096  2899               	goto	u170_25
  3724  0097  304C               	movlw	76
  3725  0098  0220               	subwf	??_TIMER1_IRQ_Handler,w
  3726  0099                     u170_25:
  3727  0099  1803               	skipnc
  3728  009A  289C               	goto	u170_21
  3729  009B  289D               	goto	u170_20
  3730  009C                     u170_21:
  3731  009C  28A4               	goto	i1l2025
  3732  009D                     u170_20:
  3733  009D                     i1l2021:
  3734                           
  3735                           ;src/pic_int.c: 131:             {;src/pic_int.c: 132:                 tst += 5 ;
  3736  009D  3005               	movlw	5
  3737  009E  00FF               	movwf	btemp+1
  3738  009F  087F               	movf	btemp+1,w
  3739  00A0  1283               	bcf	3,5	;RP0=0, select bank0
  3740  00A1  1303               	bcf	3,6	;RP1=0, select bank0
  3741  00A2  07D1               	addwf	TIMER1_IRQ_Handler@tst,f
  3742  00A3                     i1l2023:
  3743                           
  3744                           ;src/pic_int.c: 133:                 temp_enter_counter = 0 ;
  3745  00A3  01D2               	clrf	TIMER1_IRQ_Handler@temp_enter_counter
  3746  00A4                     i1l2025:
  3747                           
  3748                           ;src/pic_int.c: 138:         last_clicked_button = 4;
  3749  00A4  3004               	movlw	4
  3750  00A5  00FF               	movwf	btemp+1
  3751  00A6  087F               	movf	btemp+1,w
  3752  00A7  1283               	bcf	3,5	;RP0=0, select bank0
  3753  00A8  1303               	bcf	3,6	;RP1=0, select bank0
  3754  00A9  00D5               	movwf	TIMER1_IRQ_Handler@last_clicked_button
  3755                           
  3756                           ;src/pic_int.c: 141:     }
  3757  00AA  28E8               	goto	i1l2047
  3758  00AB                     i1l196:	
  3759                           ;src/pic_int.c: 142:     else if ( !(PORTB & ( 1 << 5 ) ) )
  3760                           
  3761  00AB  1A86               	btfsc	6,5	;volatile
  3762  00AC  28AE               	goto	u171_21
  3763  00AD  28AF               	goto	u171_20
  3764  00AE                     u171_21:
  3765  00AE  28E8               	goto	i1l2047
  3766  00AF                     u171_20:
  3767  00AF                     i1l2027:
  3768                           
  3769                           ;src/pic_int.c: 143:     {;src/pic_int.c: 145:         if ( device_state == 1 )
  3770  00AF  035B               	decf	_device_state,w	;volatile
  3771  00B0  1D03               	btfss	3,2
  3772  00B1  28B3               	goto	u172_21
  3773  00B2  28B4               	goto	u172_20
  3774  00B3                     u172_21:
  3775  00B3  28E2               	goto	i1l2045
  3776  00B4                     u172_20:
  3777  00B4                     i1l2029:
  3778                           
  3779                           ;src/pic_int.c: 146:         {;src/pic_int.c: 147:             if ( display_mode == 1 )
  3780  00B4  0368               	decf	_display_mode,w	;volatile
  3781  00B5  1D03               	btfss	3,2
  3782  00B6  28B8               	goto	u173_21
  3783  00B7  28B9               	goto	u173_20
  3784  00B8                     u173_21:
  3785  00B8  28C3               	goto	i1l2037
  3786  00B9                     u173_20:
  3787  00B9                     i1l2031:
  3788                           
  3789                           ;src/pic_int.c: 148:             {;src/pic_int.c: 149:                 display_mode = 2;
      +                          temp_enter_counter = 0 ;
  3790  00B9  3002               	movlw	2
  3791  00BA  00FF               	movwf	btemp+1
  3792  00BB  087F               	movf	btemp+1,w
  3793  00BC  00E8               	movwf	_display_mode	;volatile
  3794  00BD                     i1l2033:
  3795  00BD  01D2               	clrf	TIMER1_IRQ_Handler@temp_enter_counter
  3796  00BE                     i1l2035:
  3797                           
  3798                           ;src/pic_int.c: 150:                 tst = desired_temp ;
  3799  00BE  0867               	movf	_desired_temp,w	;volatile
  3800  00BF  00FF               	movwf	btemp+1
  3801  00C0  087F               	movf	btemp+1,w
  3802  00C1  00D1               	movwf	TIMER1_IRQ_Handler@tst
  3803                           
  3804                           ;src/pic_int.c: 152:             }
  3805  00C2  28E2               	goto	i1l2045
  3806  00C3                     i1l2037:
  3807  00C3  3002               	movlw	2
  3808  00C4  0668               	xorwf	_display_mode,w	;volatile
  3809  00C5  1D03               	btfss	3,2
  3810  00C6  28C8               	goto	u174_21
  3811  00C7  28C9               	goto	u174_20
  3812  00C8                     u174_21:
  3813  00C8  28E2               	goto	i1l2045
  3814  00C9                     u174_20:
  3815  00C9                     i1l2039:
  3816  00C9  0867               	movf	_desired_temp,w	;volatile
  3817  00CA  3EFB               	addlw	251
  3818  00CB  00A0               	movwf	??_TIMER1_IRQ_Handler
  3819  00CC  30FF               	movlw	255
  3820  00CD  1803               	skipnc
  3821  00CE  3000               	movlw	0
  3822  00CF  00A1               	movwf	??_TIMER1_IRQ_Handler+1
  3823  00D0  0821               	movf	??_TIMER1_IRQ_Handler+1,w
  3824  00D1  3A80               	xorlw	128
  3825  00D2  00FF               	movwf	btemp+1
  3826  00D3  3080               	movlw	128
  3827  00D4  027F               	subwf	btemp+1,w
  3828  00D5  1D03               	skipz
  3829  00D6  28D9               	goto	u175_25
  3830  00D7  3023               	movlw	35
  3831  00D8  0220               	subwf	??_TIMER1_IRQ_Handler,w
  3832  00D9                     u175_25:
  3833  00D9  1C03               	skipc
  3834  00DA  28DC               	goto	u175_21
  3835  00DB  28DD               	goto	u175_20
  3836  00DC                     u175_21:
  3837  00DC  28E2               	goto	i1l2045
  3838  00DD                     u175_20:
  3839  00DD                     i1l2041:
  3840                           
  3841                           ;src/pic_int.c: 154:             {;src/pic_int.c: 155:                 tst -= 5 ;
  3842  00DD  3005               	movlw	5
  3843  00DE  1283               	bcf	3,5	;RP0=0, select bank0
  3844  00DF  1303               	bcf	3,6	;RP1=0, select bank0
  3845  00E0  02D1               	subwf	TIMER1_IRQ_Handler@tst,f
  3846  00E1                     i1l2043:
  3847                           
  3848                           ;src/pic_int.c: 156:                 temp_enter_counter = 0 ;
  3849  00E1  01D2               	clrf	TIMER1_IRQ_Handler@temp_enter_counter
  3850  00E2                     i1l2045:
  3851                           
  3852                           ;src/pic_int.c: 159:         last_clicked_button = 5;
  3853  00E2  3005               	movlw	5
  3854  00E3  00FF               	movwf	btemp+1
  3855  00E4  087F               	movf	btemp+1,w
  3856  00E5  1283               	bcf	3,5	;RP0=0, select bank0
  3857  00E6  1303               	bcf	3,6	;RP1=0, select bank0
  3858  00E7  00D5               	movwf	TIMER1_IRQ_Handler@last_clicked_button
  3859  00E8                     i1l2047:
  3860                           
  3861                           ;src/pic_int.c: 165:        if ( ((++temp_enter_counter) >= 250 ) && display_mode == 2 )
  3862  00E8  3001               	movlw	1
  3863  00E9  00FF               	movwf	btemp+1
  3864  00EA  087F               	movf	btemp+1,w
  3865  00EB  07D2               	addwf	TIMER1_IRQ_Handler@temp_enter_counter,f
  3866  00EC  30FA               	movlw	250
  3867  00ED  0252               	subwf	TIMER1_IRQ_Handler@temp_enter_counter,w
  3868  00EE  1C03               	skipc
  3869  00EF  28F1               	goto	u176_21
  3870  00F0  28F2               	goto	u176_20
  3871  00F1                     u176_21:
  3872  00F1  290E               	goto	i1l2059
  3873  00F2                     u176_20:
  3874  00F2                     i1l2049:
  3875  00F2  3002               	movlw	2
  3876  00F3  0668               	xorwf	_display_mode,w	;volatile
  3877  00F4  1D03               	btfss	3,2
  3878  00F5  28F7               	goto	u177_21
  3879  00F6  28F8               	goto	u177_20
  3880  00F7                     u177_21:
  3881  00F7  290E               	goto	i1l2059
  3882  00F8                     u177_20:
  3883  00F8                     i1l2051:
  3884                           
  3885                           ;src/pic_int.c: 166:     {;src/pic_int.c: 167:         display_mode = 1 ;
  3886  00F8  3001               	movlw	1
  3887  00F9  00FF               	movwf	btemp+1
  3888  00FA  087F               	movf	btemp+1,w
  3889  00FB  00E8               	movwf	_display_mode	;volatile
  3890                           
  3891                           ;src/pic_int.c: 168:         Current_Task = 3 ;
  3892  00FC  3003               	movlw	3
  3893  00FD  00FF               	movwf	btemp+1
  3894  00FE  087F               	movf	btemp+1,w
  3895  00FF  00DD               	movwf	_Current_Task	;volatile
  3896                           
  3897                           ;src/pic_int.c: 169:         desired_temp = tst ;
  3898  0100  0851               	movf	TIMER1_IRQ_Handler@tst,w
  3899  0101  00FF               	movwf	btemp+1
  3900  0102  087F               	movf	btemp+1,w
  3901  0103  00E7               	movwf	_desired_temp	;volatile
  3902  0104                     i1l2053:
  3903                           
  3904                           ;src/pic_int.c: 170:         if ( device_state == 1 )
  3905  0104  035B               	decf	_device_state,w	;volatile
  3906  0105  1D03               	btfss	3,2
  3907  0106  2908               	goto	u178_21
  3908  0107  2909               	goto	u178_20
  3909  0108                     u178_21:
  3910  0108  290D               	goto	i1l2057
  3911  0109                     u178_20:
  3912  0109                     i1l2055:
  3913                           
  3914                           ;src/pic_int.c: 171:         {;src/pic_int.c: 172:             display_state = 1 ;
  3915  0109  3001               	movlw	1
  3916  010A  00FF               	movwf	btemp+1
  3917  010B  087F               	movf	btemp+1,w
  3918  010C  00DC               	movwf	_display_state	;volatile
  3919  010D                     i1l2057:
  3920                           
  3921                           ;src/pic_int.c: 174:         temp_enter_counter = 0 ;
  3922  010D  01D2               	clrf	TIMER1_IRQ_Handler@temp_enter_counter
  3923  010E                     i1l2059:
  3924                           
  3925                           ;src/pic_int.c: 178:     if ( device_state == 1 && display_state == 1 ) {
  3926  010E  035B               	decf	_device_state,w	;volatile
  3927  010F  1D03               	btfss	3,2
  3928  0110  2912               	goto	u179_21
  3929  0111  2913               	goto	u179_20
  3930  0112                     u179_21:
  3931  0112  2930               	goto	i1l2071
  3932  0113                     u179_20:
  3933  0113                     i1l2061:
  3934  0113  035C               	decf	_display_state,w	;volatile
  3935  0114  1D03               	btfss	3,2
  3936  0115  2917               	goto	u180_21
  3937  0116  2918               	goto	u180_20
  3938  0117                     u180_21:
  3939  0117  2930               	goto	i1l2071
  3940  0118                     u180_20:
  3941  0118                     i1l2063:
  3942                           
  3943                           ;src/pic_int.c: 179:         if ( display_mode == 1 )
  3944  0118  0368               	decf	_display_mode,w	;volatile
  3945  0119  1D03               	btfss	3,2
  3946  011A  291C               	goto	u181_21
  3947  011B  291D               	goto	u181_20
  3948  011C                     u181_21:
  3949  011C  2924               	goto	i1l2067
  3950  011D                     u181_20:
  3951  011D                     i1l2065:
  3952                           
  3953                           ;src/pic_int.c: 180:         {;src/pic_int.c: 181:             WriteSegVal( average_temp
      +                           );
  3954  011D  0864               	movf	_average_temp,w	;volatile
  3955  011E  120A  118A  2769  120A  118A  	fcall	_WriteSegVal
  3956                           
  3957                           ;src/pic_int.c: 182:         }
  3958  0123  2930               	goto	i1l2071
  3959  0124                     i1l2067:
  3960  0124  3002               	movlw	2
  3961  0125  0668               	xorwf	_display_mode,w	;volatile
  3962  0126  1D03               	btfss	3,2
  3963  0127  2929               	goto	u182_21
  3964  0128  292A               	goto	u182_20
  3965  0129                     u182_21:
  3966  0129  2930               	goto	i1l2071
  3967  012A                     u182_20:
  3968  012A                     i1l2069:
  3969                           
  3970                           ;src/pic_int.c: 184:          WriteSegVal( tst );
  3971  012A  0851               	movf	TIMER1_IRQ_Handler@tst,w
  3972  012B  120A  118A  2769  120A  118A  	fcall	_WriteSegVal
  3973  0130                     i1l2071:
  3974                           
  3975                           ;src/pic_int.c: 191:     if ( (++sig_blink_count) >= 30 && display_mode == 2 )
  3976  0130  3001               	movlw	1
  3977  0131  00FF               	movwf	btemp+1
  3978  0132  087F               	movf	btemp+1,w
  3979  0133  1283               	bcf	3,5	;RP0=0, select bank0
  3980  0134  1303               	bcf	3,6	;RP1=0, select bank0
  3981  0135  07D4               	addwf	TIMER1_IRQ_Handler@sig_blink_count,f
  3982  0136  301E               	movlw	30
  3983  0137  0254               	subwf	TIMER1_IRQ_Handler@sig_blink_count,w
  3984  0138  1C03               	skipc
  3985  0139  293B               	goto	u183_21
  3986  013A  293C               	goto	u183_20
  3987  013B                     u183_21:
  3988  013B  2951               	goto	i1l2087
  3989  013C                     u183_20:
  3990  013C                     i1l2073:
  3991  013C  3002               	movlw	2
  3992  013D  0668               	xorwf	_display_mode,w	;volatile
  3993  013E  1D03               	btfss	3,2
  3994  013F  2941               	goto	u184_21
  3995  0140  2942               	goto	u184_20
  3996  0141                     u184_21:
  3997  0141  2951               	goto	i1l2087
  3998  0142                     u184_20:
  3999  0142                     i1l2075:
  4000                           
  4001                           ;src/pic_int.c: 192:     {;src/pic_int.c: 193:         if ( sig_blink_toggle == 0 )
  4002  0142  0853               	movf	TIMER1_IRQ_Handler@sig_blink_toggle,w
  4003  0143  1D03               	btfss	3,2
  4004  0144  2946               	goto	u185_21
  4005  0145  2947               	goto	u185_20
  4006  0146                     u185_21:
  4007  0146  294B               	goto	i1l2081
  4008  0147                     u185_20:
  4009  0147                     i1l2077:
  4010                           
  4011                           ;src/pic_int.c: 194:         {;src/pic_int.c: 195:             display_state = 0 ;
  4012  0147  01DC               	clrf	_display_state	;volatile
  4013  0148                     i1l2079:
  4014                           
  4015                           ;src/pic_int.c: 196:             sig_blink_toggle = 1 ;
  4016  0148  01D3               	clrf	TIMER1_IRQ_Handler@sig_blink_toggle
  4017  0149  0AD3               	incf	TIMER1_IRQ_Handler@sig_blink_toggle,f
  4018                           
  4019                           ;src/pic_int.c: 197:         }
  4020  014A  2950               	goto	i1l2085
  4021  014B                     i1l2081:
  4022                           
  4023                           ;src/pic_int.c: 199:             display_state = 1 ;
  4024  014B  3001               	movlw	1
  4025  014C  00FF               	movwf	btemp+1
  4026  014D  087F               	movf	btemp+1,w
  4027  014E  00DC               	movwf	_display_state	;volatile
  4028  014F                     i1l2083:
  4029                           
  4030                           ;src/pic_int.c: 200:             sig_blink_toggle = 0 ;
  4031  014F  01D3               	clrf	TIMER1_IRQ_Handler@sig_blink_toggle
  4032  0150                     i1l2085:
  4033                           
  4034                           ;src/pic_int.c: 202:         sig_blink_count = 0 ;
  4035  0150  01D4               	clrf	TIMER1_IRQ_Handler@sig_blink_count
  4036  0151                     i1l2087:
  4037                           
  4038                           ;src/pic_int.c: 209:     if ( ++tim1_ovf_count == 3 )
  4039  0151  3001               	movlw	1
  4040  0152  00FF               	movwf	btemp+1
  4041  0153  087F               	movf	btemp+1,w
  4042  0154  07D7               	addwf	TIMER1_IRQ_Handler@tim1_ovf_count,f
  4043  0155  3003               	movlw	3
  4044  0156  0657               	xorwf	TIMER1_IRQ_Handler@tim1_ovf_count,w
  4045  0157  1D03               	btfss	3,2
  4046  0158  295A               	goto	u186_21
  4047  0159  295B               	goto	u186_20
  4048  015A                     u186_21:
  4049  015A  2963               	goto	i1l217
  4050  015B                     u186_20:
  4051  015B                     i1l2089:
  4052                           
  4053                           ;src/pic_int.c: 210:     {;src/pic_int.c: 212:         ADC_StartConv_NB();
  4054  015B  120A  158A  2776  120A  118A  	fcall	i1_ADC_StartConv_NB
  4055  0160                     i1l2091:
  4056                           
  4057                           ;src/pic_int.c: 213:         tim1_ovf_count = 0 ;
  4058  0160  1283               	bcf	3,5	;RP0=0, select bank0
  4059  0161  1303               	bcf	3,6	;RP1=0, select bank0
  4060  0162  01D7               	clrf	TIMER1_IRQ_Handler@tim1_ovf_count
  4061  0163                     i1l217:
  4062  0163  0008               	return
  4063  0164                     __end_of_TIMER1_IRQ_Handler:
  4064                           
  4065                           	psect	text22
  4066  0F76                     __ptext22:	
  4067 ;; *************** function i1_ADC_StartConv_NB *****************
  4068 ;; Defined at:
  4069 ;;		line 82 in file "Drivers/src/pic_adc.c"
  4070 ;; Parameters:    Size  Location     Type
  4071 ;;		None
  4072 ;; Auto vars:     Size  Location     Type
  4073 ;;		None
  4074 ;; Return value:  Size  Location     Type
  4075 ;;                  1    wreg      void 
  4076 ;; Registers used:
  4077 ;;		None
  4078 ;; Tracked objects:
  4079 ;;		On entry : 0/0
  4080 ;;		On exit  : 0/0
  4081 ;;		Unchanged: 0/0
  4082 ;; Data sizes:     COMMON   BANK0   BANK1   BANK3   BANK2
  4083 ;;      Params:         0       0       0       0       0
  4084 ;;      Locals:         0       0       0       0       0
  4085 ;;      Temps:          0       0       0       0       0
  4086 ;;      Totals:         0       0       0       0       0
  4087 ;;Total ram usage:        0 bytes
  4088 ;; Hardware stack levels used:    1
  4089 ;; This function calls:
  4090 ;;		Nothing
  4091 ;; This function is called by:
  4092 ;;		_TIMER1_IRQ_Handler
  4093 ;; This function uses a non-reentrant model
  4094 ;;
  4095                           
  4096                           
  4097                           ;psect for function i1_ADC_StartConv_NB
  4098  0F76                     i1_ADC_StartConv_NB:
  4099  0F76                     i1l1885:	
  4100                           ;incstack = 0
  4101                           ; Regs used in i1_ADC_StartConv_NB: []
  4102                           
  4103                           
  4104                           ;Drivers/src/pic_adc.c: 84:     ADCON0 |= ( 1 << 0x2 );
  4105  0F76  1283               	bcf	3,5	;RP0=0, select bank0
  4106  0F77  1303               	bcf	3,6	;RP1=0, select bank0
  4107  0F78  151F               	bsf	31,2	;volatile
  4108  0F79                     i1l111:
  4109  0F79  0008               	return
  4110  0F7A                     __end_ofi1_ADC_StartConv_NB:
  4111                           
  4112                           	psect	text23
  4113  0769                     __ptext23:	
  4114 ;; *************** function _WriteSegVal *****************
  4115 ;; Defined at:
  4116 ;;		line 25 in file "src/pic_int.c"
  4117 ;; Parameters:    Size  Location     Type
  4118 ;;  newval          1    wreg     unsigned char 
  4119 ;; Auto vars:     Size  Location     Type
  4120 ;;  newval          1   13[COMMON] unsigned char 
  4121 ;; Return value:  Size  Location     Type
  4122 ;;                  1    wreg      void 
  4123 ;; Registers used:
  4124 ;;		wreg, status,2, status,0, btemp+1, pclath, cstack
  4125 ;; Tracked objects:
  4126 ;;		On entry : 0/0
  4127 ;;		On exit  : 0/0
  4128 ;;		Unchanged: 0/0
  4129 ;; Data sizes:     COMMON   BANK0   BANK1   BANK3   BANK2
  4130 ;;      Params:         0       0       0       0       0
  4131 ;;      Locals:         1       0       0       0       0
  4132 ;;      Temps:          5       0       0       0       0
  4133 ;;      Totals:         6       0       0       0       0
  4134 ;;Total ram usage:        6 bytes
  4135 ;; Hardware stack levels used:    1
  4136 ;; Hardware stack levels required when called:    1
  4137 ;; This function calls:
  4138 ;;		___awdiv
  4139 ;;		___awmod
  4140 ;; This function is called by:
  4141 ;;		_TIMER1_IRQ_Handler
  4142 ;; This function uses a non-reentrant model
  4143 ;;
  4144                           
  4145                           
  4146                           ;psect for function _WriteSegVal
  4147  0769                     _WriteSegVal:
  4148                           
  4149                           ;incstack = 0
  4150                           ; Regs used in _WriteSegVal: [wreg+status,2+status,0+btemp+1+pclath+cstack]
  4151                           ;WriteSegVal@newval stored from wreg
  4152  0769  00FD               	movwf	WriteSegVal@newval
  4153  076A                     i1l1815:
  4154                           
  4155                           ;src/pic_int.c: 25: void WriteSegVal ( uint8_t newval );src/pic_int.c: 26: {;src/pic_int
      +                          .c: 28:     Seg_Val = (newval%10)|((newval/10) << 4 ) ;
  4156  076A  300A               	movlw	10
  4157  076B  00F0               	movwf	___awdiv@divisor
  4158  076C  3000               	movlw	0
  4159  076D  00F1               	movwf	___awdiv@divisor+1
  4160  076E  087D               	movf	WriteSegVal@newval,w
  4161  076F  00F8               	movwf	??_WriteSegVal
  4162  0770  01F9               	clrf	??_WriteSegVal+1
  4163  0771  0878               	movf	??_WriteSegVal,w
  4164  0772  00F2               	movwf	___awdiv@dividend
  4165  0773  0879               	movf	??_WriteSegVal+1,w
  4166  0774  00F3               	movwf	___awdiv@dividend+1
  4167  0775  120A  118A  25AA  120A  118A  	fcall	___awdiv
  4168  077A  0870               	movf	?___awdiv,w
  4169  077B  00FA               	movwf	??_WriteSegVal+2
  4170  077C  3004               	movlw	4
  4171  077D                     u143_25:
  4172  077D  1003               	clrc
  4173  077E  0DFA               	rlf	??_WriteSegVal+2,f
  4174  077F  3EFF               	addlw	-1
  4175  0780  1D03               	skipz
  4176  0781  2F7D               	goto	u143_25
  4177  0782  300A               	movlw	10
  4178  0783  00F0               	movwf	___awmod@divisor
  4179  0784  3000               	movlw	0
  4180  0785  00F1               	movwf	___awmod@divisor+1
  4181  0786  087D               	movf	WriteSegVal@newval,w
  4182  0787  00FB               	movwf	??_WriteSegVal+3
  4183  0788  01FC               	clrf	??_WriteSegVal+4
  4184  0789  087B               	movf	??_WriteSegVal+3,w
  4185  078A  00F2               	movwf	___awmod@dividend
  4186  078B  087C               	movf	??_WriteSegVal+4,w
  4187  078C  00F3               	movwf	___awmod@dividend+1
  4188  078D  120A  118A  2611  120A  118A  	fcall	___awmod
  4189  0792  0870               	movf	?___awmod,w
  4190  0793  047A               	iorwf	??_WriteSegVal+2,w
  4191  0794  00FF               	movwf	btemp+1
  4192  0795  087F               	movf	btemp+1,w
  4193  0796  1283               	bcf	3,5	;RP0=0, select bank0
  4194  0797  1303               	bcf	3,6	;RP1=0, select bank0
  4195  0798  00E6               	movwf	_Seg_Val	;volatile
  4196  0799                     i1l162:
  4197  0799  0008               	return
  4198  079A                     __end_of_WriteSegVal:
  4199                           
  4200                           	psect	text24
  4201  0611                     __ptext24:	
  4202 ;; *************** function ___awmod *****************
  4203 ;; Defined at:
  4204 ;;		line 5 in file "C:\Program Files\Microchip\xc8\v2.20\pic\sources\c90\common\awmod.c"
  4205 ;; Parameters:    Size  Location     Type
  4206 ;;  divisor         2    0[COMMON] int 
  4207 ;;  dividend        2    2[COMMON] int 
  4208 ;; Auto vars:     Size  Location     Type
  4209 ;;  sign            1    5[COMMON] unsigned char 
  4210 ;;  counter         1    4[COMMON] unsigned char 
  4211 ;; Return value:  Size  Location     Type
  4212 ;;                  2    0[COMMON] int 
  4213 ;; Registers used:
  4214 ;;		wreg, status,2, status,0, btemp+1
  4215 ;; Tracked objects:
  4216 ;;		On entry : 0/0
  4217 ;;		On exit  : 0/0
  4218 ;;		Unchanged: 0/0
  4219 ;; Data sizes:     COMMON   BANK0   BANK1   BANK3   BANK2
  4220 ;;      Params:         4       0       0       0       0
  4221 ;;      Locals:         2       0       0       0       0
  4222 ;;      Temps:          0       0       0       0       0
  4223 ;;      Totals:         6       0       0       0       0
  4224 ;;Total ram usage:        6 bytes
  4225 ;; Hardware stack levels used:    1
  4226 ;; This function calls:
  4227 ;;		Nothing
  4228 ;; This function is called by:
  4229 ;;		_WriteSegVal
  4230 ;; This function uses a non-reentrant model
  4231 ;;
  4232                           
  4233                           
  4234                           ;psect for function ___awmod
  4235  0611                     ___awmod:
  4236  0611                     i1l1685:	
  4237                           ;incstack = 0
  4238                           ; Regs used in ___awmod: [wreg+status,2+status,0+btemp+1]
  4239                           
  4240  0611  01F5               	clrf	___awmod@sign
  4241  0612                     i1l1687:
  4242  0612  1FF3               	btfss	___awmod@dividend+1,7
  4243  0613  2E15               	goto	u110_21
  4244  0614  2E16               	goto	u110_20
  4245  0615                     u110_21:
  4246  0615  2E1D               	goto	i1l1693
  4247  0616                     u110_20:
  4248  0616                     i1l1689:
  4249  0616  09F2               	comf	___awmod@dividend,f
  4250  0617  09F3               	comf	___awmod@dividend+1,f
  4251  0618  0AF2               	incf	___awmod@dividend,f
  4252  0619  1903               	skipnz
  4253  061A  0AF3               	incf	___awmod@dividend+1,f
  4254  061B                     i1l1691:
  4255  061B  01F5               	clrf	___awmod@sign
  4256  061C  0AF5               	incf	___awmod@sign,f
  4257  061D                     i1l1693:
  4258  061D  1FF1               	btfss	___awmod@divisor+1,7
  4259  061E  2E20               	goto	u111_21
  4260  061F  2E21               	goto	u111_20
  4261  0620                     u111_21:
  4262  0620  2E26               	goto	i1l1697
  4263  0621                     u111_20:
  4264  0621                     i1l1695:
  4265  0621  09F0               	comf	___awmod@divisor,f
  4266  0622  09F1               	comf	___awmod@divisor+1,f
  4267  0623  0AF0               	incf	___awmod@divisor,f
  4268  0624  1903               	skipnz
  4269  0625  0AF1               	incf	___awmod@divisor+1,f
  4270  0626                     i1l1697:
  4271  0626  0870               	movf	___awmod@divisor,w
  4272  0627  0471               	iorwf	___awmod@divisor+1,w
  4273  0628  1903               	btfsc	3,2
  4274  0629  2E2B               	goto	u112_21
  4275  062A  2E2C               	goto	u112_20
  4276  062B                     u112_21:
  4277  062B  2E5B               	goto	i1l1715
  4278  062C                     u112_20:
  4279  062C                     i1l1699:
  4280  062C  01F4               	clrf	___awmod@counter
  4281  062D  0AF4               	incf	___awmod@counter,f
  4282  062E  2E3A               	goto	i1l1705
  4283  062F                     i1l1701:
  4284  062F  3001               	movlw	1
  4285  0630                     u113_25:
  4286  0630  1003               	clrc
  4287  0631  0DF0               	rlf	___awmod@divisor,f
  4288  0632  0DF1               	rlf	___awmod@divisor+1,f
  4289  0633  3EFF               	addlw	-1
  4290  0634  1D03               	skipz
  4291  0635  2E30               	goto	u113_25
  4292  0636                     i1l1703:
  4293  0636  3001               	movlw	1
  4294  0637  00FF               	movwf	btemp+1
  4295  0638  087F               	movf	btemp+1,w
  4296  0639  07F4               	addwf	___awmod@counter,f
  4297  063A                     i1l1705:
  4298  063A  1FF1               	btfss	___awmod@divisor+1,7
  4299  063B  2E3D               	goto	u114_21
  4300  063C  2E3E               	goto	u114_20
  4301  063D                     u114_21:
  4302  063D  2E2F               	goto	i1l1701
  4303  063E                     u114_20:
  4304  063E                     i1l1707:
  4305  063E  0871               	movf	___awmod@divisor+1,w
  4306  063F  0273               	subwf	___awmod@dividend+1,w
  4307  0640  1D03               	skipz
  4308  0641  2E44               	goto	u115_25
  4309  0642  0870               	movf	___awmod@divisor,w
  4310  0643  0272               	subwf	___awmod@dividend,w
  4311  0644                     u115_25:
  4312  0644  1C03               	skipc
  4313  0645  2E47               	goto	u115_21
  4314  0646  2E48               	goto	u115_20
  4315  0647                     u115_21:
  4316  0647  2E4E               	goto	i1l1711
  4317  0648                     u115_20:
  4318  0648                     i1l1709:
  4319  0648  0870               	movf	___awmod@divisor,w
  4320  0649  02F2               	subwf	___awmod@dividend,f
  4321  064A  0871               	movf	___awmod@divisor+1,w
  4322  064B  1C03               	skipc
  4323  064C  03F3               	decf	___awmod@dividend+1,f
  4324  064D  02F3               	subwf	___awmod@dividend+1,f
  4325  064E                     i1l1711:
  4326  064E  3001               	movlw	1
  4327  064F                     u116_25:
  4328  064F  1003               	clrc
  4329  0650  0CF1               	rrf	___awmod@divisor+1,f
  4330  0651  0CF0               	rrf	___awmod@divisor,f
  4331  0652  3EFF               	addlw	-1
  4332  0653  1D03               	skipz
  4333  0654  2E4F               	goto	u116_25
  4334  0655                     i1l1713:
  4335  0655  3001               	movlw	1
  4336  0656  02F4               	subwf	___awmod@counter,f
  4337  0657  1D03               	btfss	3,2
  4338  0658  2E5A               	goto	u117_21
  4339  0659  2E5B               	goto	u117_20
  4340  065A                     u117_21:
  4341  065A  2E3E               	goto	i1l1707
  4342  065B                     u117_20:
  4343  065B                     i1l1715:
  4344  065B  0875               	movf	___awmod@sign,w
  4345  065C  1903               	btfsc	3,2
  4346  065D  2E5F               	goto	u118_21
  4347  065E  2E60               	goto	u118_20
  4348  065F                     u118_21:
  4349  065F  2E65               	goto	i1l1719
  4350  0660                     u118_20:
  4351  0660                     i1l1717:
  4352  0660  09F2               	comf	___awmod@dividend,f
  4353  0661  09F3               	comf	___awmod@dividend+1,f
  4354  0662  0AF2               	incf	___awmod@dividend,f
  4355  0663  1903               	skipnz
  4356  0664  0AF3               	incf	___awmod@dividend+1,f
  4357  0665                     i1l1719:
  4358  0665  0873               	movf	___awmod@dividend+1,w
  4359  0666  00F1               	movwf	?___awmod+1
  4360  0667  0872               	movf	___awmod@dividend,w
  4361  0668  00F0               	movwf	?___awmod
  4362  0669                     i1l613:
  4363  0669  0008               	return
  4364  066A                     __end_of___awmod:
  4365                           
  4366                           	psect	text25
  4367  05AA                     __ptext25:	
  4368 ;; *************** function ___awdiv *****************
  4369 ;; Defined at:
  4370 ;;		line 5 in file "C:\Program Files\Microchip\xc8\v2.20\pic\sources\c90\common\awdiv.c"
  4371 ;; Parameters:    Size  Location     Type
  4372 ;;  divisor         2    0[COMMON] int 
  4373 ;;  dividend        2    2[COMMON] int 
  4374 ;; Auto vars:     Size  Location     Type
  4375 ;;  quotient        2    6[COMMON] int 
  4376 ;;  sign            1    5[COMMON] unsigned char 
  4377 ;;  counter         1    4[COMMON] unsigned char 
  4378 ;; Return value:  Size  Location     Type
  4379 ;;                  2    0[COMMON] int 
  4380 ;; Registers used:
  4381 ;;		wreg, status,2, status,0, btemp+1
  4382 ;; Tracked objects:
  4383 ;;		On entry : 0/0
  4384 ;;		On exit  : 0/0
  4385 ;;		Unchanged: 0/0
  4386 ;; Data sizes:     COMMON   BANK0   BANK1   BANK3   BANK2
  4387 ;;      Params:         4       0       0       0       0
  4388 ;;      Locals:         4       0       0       0       0
  4389 ;;      Temps:          0       0       0       0       0
  4390 ;;      Totals:         8       0       0       0       0
  4391 ;;Total ram usage:        8 bytes
  4392 ;; Hardware stack levels used:    1
  4393 ;; This function calls:
  4394 ;;		Nothing
  4395 ;; This function is called by:
  4396 ;;		_WriteSegVal
  4397 ;; This function uses a non-reentrant model
  4398 ;;
  4399                           
  4400                           
  4401                           ;psect for function ___awdiv
  4402  05AA                     ___awdiv:
  4403  05AA                     i1l1641:	
  4404                           ;incstack = 0
  4405                           ; Regs used in ___awdiv: [wreg+status,2+status,0+btemp+1]
  4406                           
  4407  05AA  01F5               	clrf	___awdiv@sign
  4408  05AB                     i1l1643:
  4409  05AB  1FF1               	btfss	___awdiv@divisor+1,7
  4410  05AC  2DAE               	goto	u100_21
  4411  05AD  2DAF               	goto	u100_20
  4412  05AE                     u100_21:
  4413  05AE  2DB6               	goto	i1l1649
  4414  05AF                     u100_20:
  4415  05AF                     i1l1645:
  4416  05AF  09F0               	comf	___awdiv@divisor,f
  4417  05B0  09F1               	comf	___awdiv@divisor+1,f
  4418  05B1  0AF0               	incf	___awdiv@divisor,f
  4419  05B2  1903               	skipnz
  4420  05B3  0AF1               	incf	___awdiv@divisor+1,f
  4421  05B4                     i1l1647:
  4422  05B4  01F5               	clrf	___awdiv@sign
  4423  05B5  0AF5               	incf	___awdiv@sign,f
  4424  05B6                     i1l1649:
  4425  05B6  1FF3               	btfss	___awdiv@dividend+1,7
  4426  05B7  2DB9               	goto	u101_21
  4427  05B8  2DBA               	goto	u101_20
  4428  05B9                     u101_21:
  4429  05B9  2DC3               	goto	i1l1655
  4430  05BA                     u101_20:
  4431  05BA                     i1l1651:
  4432  05BA  09F2               	comf	___awdiv@dividend,f
  4433  05BB  09F3               	comf	___awdiv@dividend+1,f
  4434  05BC  0AF2               	incf	___awdiv@dividend,f
  4435  05BD  1903               	skipnz
  4436  05BE  0AF3               	incf	___awdiv@dividend+1,f
  4437  05BF                     i1l1653:
  4438  05BF  3001               	movlw	1
  4439  05C0  00FF               	movwf	btemp+1
  4440  05C1  087F               	movf	btemp+1,w
  4441  05C2  06F5               	xorwf	___awdiv@sign,f
  4442  05C3                     i1l1655:
  4443  05C3  01F6               	clrf	___awdiv@quotient
  4444  05C4  01F7               	clrf	___awdiv@quotient+1
  4445  05C5                     i1l1657:
  4446  05C5  0870               	movf	___awdiv@divisor,w
  4447  05C6  0471               	iorwf	___awdiv@divisor+1,w
  4448  05C7  1903               	btfsc	3,2
  4449  05C8  2DCA               	goto	u102_21
  4450  05C9  2DCB               	goto	u102_20
  4451  05CA                     u102_21:
  4452  05CA  2E02               	goto	i1l1677
  4453  05CB                     u102_20:
  4454  05CB                     i1l1659:
  4455  05CB  01F4               	clrf	___awdiv@counter
  4456  05CC  0AF4               	incf	___awdiv@counter,f
  4457  05CD  2DD9               	goto	i1l1665
  4458  05CE                     i1l1661:
  4459  05CE  3001               	movlw	1
  4460  05CF                     u103_25:
  4461  05CF  1003               	clrc
  4462  05D0  0DF0               	rlf	___awdiv@divisor,f
  4463  05D1  0DF1               	rlf	___awdiv@divisor+1,f
  4464  05D2  3EFF               	addlw	-1
  4465  05D3  1D03               	skipz
  4466  05D4  2DCF               	goto	u103_25
  4467  05D5                     i1l1663:
  4468  05D5  3001               	movlw	1
  4469  05D6  00FF               	movwf	btemp+1
  4470  05D7  087F               	movf	btemp+1,w
  4471  05D8  07F4               	addwf	___awdiv@counter,f
  4472  05D9                     i1l1665:
  4473  05D9  1FF1               	btfss	___awdiv@divisor+1,7
  4474  05DA  2DDC               	goto	u104_21
  4475  05DB  2DDD               	goto	u104_20
  4476  05DC                     u104_21:
  4477  05DC  2DCE               	goto	i1l1661
  4478  05DD                     u104_20:
  4479  05DD                     i1l1667:
  4480  05DD  3001               	movlw	1
  4481  05DE                     u105_25:
  4482  05DE  1003               	clrc
  4483  05DF  0DF6               	rlf	___awdiv@quotient,f
  4484  05E0  0DF7               	rlf	___awdiv@quotient+1,f
  4485  05E1  3EFF               	addlw	-1
  4486  05E2  1D03               	skipz
  4487  05E3  2DDE               	goto	u105_25
  4488  05E4  0871               	movf	___awdiv@divisor+1,w
  4489  05E5  0273               	subwf	___awdiv@dividend+1,w
  4490  05E6  1D03               	skipz
  4491  05E7  2DEA               	goto	u106_25
  4492  05E8  0870               	movf	___awdiv@divisor,w
  4493  05E9  0272               	subwf	___awdiv@dividend,w
  4494  05EA                     u106_25:
  4495  05EA  1C03               	skipc
  4496  05EB  2DED               	goto	u106_21
  4497  05EC  2DEE               	goto	u106_20
  4498  05ED                     u106_21:
  4499  05ED  2DF5               	goto	i1l1673
  4500  05EE                     u106_20:
  4501  05EE                     i1l1669:
  4502  05EE  0870               	movf	___awdiv@divisor,w
  4503  05EF  02F2               	subwf	___awdiv@dividend,f
  4504  05F0  0871               	movf	___awdiv@divisor+1,w
  4505  05F1  1C03               	skipc
  4506  05F2  03F3               	decf	___awdiv@dividend+1,f
  4507  05F3  02F3               	subwf	___awdiv@dividend+1,f
  4508  05F4                     i1l1671:
  4509  05F4  1476               	bsf	___awdiv@quotient,0
  4510  05F5                     i1l1673:
  4511  05F5  3001               	movlw	1
  4512  05F6                     u107_25:
  4513  05F6  1003               	clrc
  4514  05F7  0CF1               	rrf	___awdiv@divisor+1,f
  4515  05F8  0CF0               	rrf	___awdiv@divisor,f
  4516  05F9  3EFF               	addlw	-1
  4517  05FA  1D03               	skipz
  4518  05FB  2DF6               	goto	u107_25
  4519  05FC                     i1l1675:
  4520  05FC  3001               	movlw	1
  4521  05FD  02F4               	subwf	___awdiv@counter,f
  4522  05FE  1D03               	btfss	3,2
  4523  05FF  2E01               	goto	u108_21
  4524  0600  2E02               	goto	u108_20
  4525  0601                     u108_21:
  4526  0601  2DDD               	goto	i1l1667
  4527  0602                     u108_20:
  4528  0602                     i1l1677:
  4529  0602  0875               	movf	___awdiv@sign,w
  4530  0603  1903               	btfsc	3,2
  4531  0604  2E06               	goto	u109_21
  4532  0605  2E07               	goto	u109_20
  4533  0606                     u109_21:
  4534  0606  2E0C               	goto	i1l1681
  4535  0607                     u109_20:
  4536  0607                     i1l1679:
  4537  0607  09F6               	comf	___awdiv@quotient,f
  4538  0608  09F7               	comf	___awdiv@quotient+1,f
  4539  0609  0AF6               	incf	___awdiv@quotient,f
  4540  060A  1903               	skipnz
  4541  060B  0AF7               	incf	___awdiv@quotient+1,f
  4542  060C                     i1l1681:
  4543  060C  0877               	movf	___awdiv@quotient+1,w
  4544  060D  00F1               	movwf	?___awdiv+1
  4545  060E  0876               	movf	___awdiv@quotient,w
  4546  060F  00F0               	movwf	?___awdiv
  4547  0610                     i1l600:
  4548  0610  0008               	return
  4549  0611                     __end_of___awdiv:
  4550                           
  4551                           	psect	text26
  4552  0164                     __ptext26:	
  4553 ;; *************** function _ADC_IRQ_Handler *****************
  4554 ;; Defined at:
  4555 ;;		line 222 in file "src/pic_int.c"
  4556 ;; Parameters:    Size  Location     Type
  4557 ;;		None
  4558 ;; Auto vars:     Size  Location     Type
  4559 ;;		None
  4560 ;; Return value:  Size  Location     Type
  4561 ;;                  1    wreg      void 
  4562 ;; Registers used:
  4563 ;;		wreg, status,2, status,0, btemp+1, pclath, cstack
  4564 ;; Tracked objects:
  4565 ;;		On entry : 0/0
  4566 ;;		On exit  : 0/0
  4567 ;;		Unchanged: 0/0
  4568 ;; Data sizes:     COMMON   BANK0   BANK1   BANK3   BANK2
  4569 ;;      Params:         0       0       0       0       0
  4570 ;;      Locals:         0       0       0       0       0
  4571 ;;      Temps:          3       0       0       0       0
  4572 ;;      Totals:         3       0       0       0       0
  4573 ;;Total ram usage:        3 bytes
  4574 ;; Hardware stack levels used:    1
  4575 ;; Hardware stack levels required when called:    1
  4576 ;; This function calls:
  4577 ;;		___lwdiv
  4578 ;; This function is called by:
  4579 ;;		_ISR
  4580 ;; This function uses a non-reentrant model
  4581 ;;
  4582                           
  4583                           
  4584                           ;psect for function _ADC_IRQ_Handler
  4585  0164                     _ADC_IRQ_Handler:
  4586  0164                     i1l2093:	
  4587                           ;incstack = 0
  4588                           ; Regs used in _ADC_IRQ_Handler: [wreg+status,2+status,0+btemp+1+pclath+cstack]
  4589                           
  4590                           
  4591                           ;src/pic_int.c: 224:     static uint16_t temp_rsum = 0 ;;src/pic_int.c: 225:     static 
      +                          uint8_t temp_count = 0 ;;src/pic_int.c: 226:     static uint8_t heat_led_count = 0 ;;src
      +                          /pic_int.c: 227:     static uint8_t heat_led_toggle = 0 ;;src/pic_int.c: 229:     temp_r
      +                          sum += (( ((uint16_t)ADRESL) | ( ((uint16_t)ADRESH) << 8 ) )/2) ;
  4592  0164  1283               	bcf	3,5	;RP0=0, select bank0
  4593  0165  1303               	bcf	3,6	;RP1=0, select bank0
  4594  0166  081E               	movf	30,w	;volatile
  4595  0167  00F8               	movwf	??_ADC_IRQ_Handler+1
  4596  0168  1683               	bsf	3,5	;RP0=1, select bank1
  4597  0169  1303               	bcf	3,6	;RP1=0, select bank1
  4598  016A  081E               	movf	30,w	;volatile
  4599  016B  00F7               	movwf	??_ADC_IRQ_Handler
  4600  016C  1003               	clrc
  4601  016D  0CF8               	rrf	??_ADC_IRQ_Handler+1,f
  4602  016E  0CF7               	rrf	??_ADC_IRQ_Handler,f
  4603  016F  0877               	movf	??_ADC_IRQ_Handler,w
  4604  0170  1283               	bcf	3,5	;RP0=0, select bank0
  4605  0171  1303               	bcf	3,6	;RP1=0, select bank0
  4606  0172  07CC               	addwf	ADC_IRQ_Handler@temp_rsum,f
  4607  0173  1803               	skipnc
  4608  0174  0ACD               	incf	ADC_IRQ_Handler@temp_rsum+1,f
  4609  0175  0878               	movf	??_ADC_IRQ_Handler+1,w
  4610  0176  07CD               	addwf	ADC_IRQ_Handler@temp_rsum+1,f
  4611  0177                     i1l2095:
  4612                           
  4613                           ;src/pic_int.c: 230:     temp_count++ ;
  4614  0177  3001               	movlw	1
  4615  0178  00FF               	movwf	btemp+1
  4616  0179  087F               	movf	btemp+1,w
  4617  017A  07D0               	addwf	ADC_IRQ_Handler@temp_count,f
  4618  017B                     i1l2097:
  4619                           
  4620                           ;src/pic_int.c: 232:     if ( temp_count == 10 )
  4621  017B  300A               	movlw	10
  4622  017C  0650               	xorwf	ADC_IRQ_Handler@temp_count,w
  4623  017D  1D03               	btfss	3,2
  4624  017E  2980               	goto	u187_21
  4625  017F  2981               	goto	u187_20
  4626  0180                     u187_21:
  4627  0180  2997               	goto	i1l2105
  4628  0181                     u187_20:
  4629  0181                     i1l2099:
  4630                           
  4631                           ;src/pic_int.c: 233:     {;src/pic_int.c: 234:         average_temp = temp_rsum / 10 ;
  4632  0181  300A               	movlw	10
  4633  0182  00F0               	movwf	___lwdiv@divisor
  4634  0183  3000               	movlw	0
  4635  0184  00F1               	movwf	___lwdiv@divisor+1
  4636  0185  084D               	movf	ADC_IRQ_Handler@temp_rsum+1,w
  4637  0186  00F3               	movwf	___lwdiv@dividend+1
  4638  0187  084C               	movf	ADC_IRQ_Handler@temp_rsum,w
  4639  0188  00F2               	movwf	___lwdiv@dividend
  4640  0189  120A  118A  26AE  120A  118A  	fcall	___lwdiv
  4641  018E  0871               	movf	?___lwdiv+1,w
  4642  018F  1283               	bcf	3,5	;RP0=0, select bank0
  4643  0190  1303               	bcf	3,6	;RP1=0, select bank0
  4644  0191  00E5               	movwf	_average_temp+1	;volatile
  4645  0192  0870               	movf	?___lwdiv,w
  4646  0193  00E4               	movwf	_average_temp	;volatile
  4647  0194                     i1l2101:
  4648                           
  4649                           ;src/pic_int.c: 235:         temp_count = 0 ;
  4650  0194  01D0               	clrf	ADC_IRQ_Handler@temp_count
  4651  0195                     i1l2103:
  4652                           
  4653                           ;src/pic_int.c: 236:         temp_rsum = 0 ;
  4654  0195  01CC               	clrf	ADC_IRQ_Handler@temp_rsum
  4655  0196  01CD               	clrf	ADC_IRQ_Handler@temp_rsum+1
  4656  0197                     i1l2105:
  4657                           
  4658                           ;src/pic_int.c: 240:     if ( device_state == 1 ){
  4659  0197  035B               	decf	_device_state,w	;volatile
  4660  0198  1D03               	btfss	3,2
  4661  0199  299B               	goto	u188_21
  4662  019A  299C               	goto	u188_20
  4663  019B                     u188_21:
  4664  019B  2A75               	goto	i1l244
  4665  019C                     u188_20:
  4666  019C                     i1l2107:
  4667                           
  4668                           ;src/pic_int.c: 241:     if ( desired_temp > average_temp && ( desired_temp - average_te
      +                          mp ) > 5 && heater_state == 0 && cooler_state == 0 ){
  4669  019C  0867               	movf	_desired_temp,w	;volatile
  4670  019D  00F7               	movwf	??_ADC_IRQ_Handler
  4671  019E  01F8               	clrf	??_ADC_IRQ_Handler+1
  4672  019F  0878               	movf	??_ADC_IRQ_Handler+1,w
  4673  01A0  0265               	subwf	_average_temp+1,w	;volatile
  4674  01A1  1D03               	skipz
  4675  01A2  29A5               	goto	u189_25
  4676  01A3  0877               	movf	??_ADC_IRQ_Handler,w
  4677  01A4  0264               	subwf	_average_temp,w	;volatile
  4678  01A5                     u189_25:
  4679  01A5  1803               	skipnc
  4680  01A6  29A8               	goto	u189_21
  4681  01A7  29A9               	goto	u189_20
  4682  01A8                     u189_21:
  4683  01A8  29CC               	goto	i1l2121
  4684  01A9                     u189_20:
  4685  01A9                     i1l2109:
  4686  01A9  0867               	movf	_desired_temp,w	;volatile
  4687  01AA  00F7               	movwf	??_ADC_IRQ_Handler
  4688  01AB  0864               	movf	_average_temp,w	;volatile
  4689  01AC  0277               	subwf	??_ADC_IRQ_Handler,w
  4690  01AD  00F8               	movwf	??_ADC_IRQ_Handler+1
  4691  01AE  0965               	comf	_average_temp+1,w	;volatile
  4692  01AF  1803               	skipnc
  4693  01B0  3E01               	addlw	1
  4694  01B1  00F9               	movwf	??_ADC_IRQ_Handler+2
  4695  01B2  3000               	movlw	0
  4696  01B3  0279               	subwf	??_ADC_IRQ_Handler+2,w
  4697  01B4  3006               	movlw	6
  4698  01B5  1903               	skipnz
  4699  01B6  0278               	subwf	??_ADC_IRQ_Handler+1,w
  4700  01B7  1C03               	skipc
  4701  01B8  29BA               	goto	u190_21
  4702  01B9  29BB               	goto	u190_20
  4703  01BA                     u190_21:
  4704  01BA  29CC               	goto	i1l2121
  4705  01BB                     u190_20:
  4706  01BB                     i1l2111:
  4707  01BB  085A               	movf	_heater_state,w	;volatile
  4708  01BC  1D03               	btfss	3,2
  4709  01BD  29BF               	goto	u191_21
  4710  01BE  29C0               	goto	u191_20
  4711  01BF                     u191_21:
  4712  01BF  29CC               	goto	i1l2121
  4713  01C0                     u191_20:
  4714  01C0                     i1l2113:
  4715  01C0  0859               	movf	_cooler_state,w	;volatile
  4716  01C1  1D03               	btfss	3,2
  4717  01C2  29C4               	goto	u192_21
  4718  01C3  29C5               	goto	u192_20
  4719  01C4                     u192_21:
  4720  01C4  29CC               	goto	i1l2121
  4721  01C5                     u192_20:
  4722  01C5                     i1l2115:
  4723                           
  4724                           ;src/pic_int.c: 243:             PORTC |= ( 1 << 5 );heater_state = 1;heat_led_count= 0 
      +                          ;
  4725  01C5  1687               	bsf	7,5	;volatile
  4726  01C6                     i1l2117:
  4727  01C6  3001               	movlw	1
  4728  01C7  00FF               	movwf	btemp+1
  4729  01C8  087F               	movf	btemp+1,w
  4730  01C9  00DA               	movwf	_heater_state	;volatile
  4731  01CA                     i1l2119:
  4732  01CA  01CF               	clrf	ADC_IRQ_Handler@heat_led_count
  4733                           
  4734                           ;src/pic_int.c: 245:         }
  4735  01CB  2A4B               	goto	i1l2153
  4736  01CC                     i1l2121:
  4737  01CC  0867               	movf	_desired_temp,w	;volatile
  4738  01CD  00F7               	movwf	??_ADC_IRQ_Handler
  4739  01CE  01F8               	clrf	??_ADC_IRQ_Handler+1
  4740  01CF  0865               	movf	_average_temp+1,w	;volatile
  4741  01D0  0278               	subwf	??_ADC_IRQ_Handler+1,w
  4742  01D1  1D03               	skipz
  4743  01D2  29D5               	goto	u193_25
  4744  01D3  0864               	movf	_average_temp,w	;volatile
  4745  01D4  0277               	subwf	??_ADC_IRQ_Handler,w
  4746  01D5                     u193_25:
  4747  01D5  1803               	skipnc
  4748  01D6  29D8               	goto	u193_21
  4749  01D7  29D9               	goto	u193_20
  4750  01D8                     u193_21:
  4751  01D8  29F9               	goto	i1l2133
  4752  01D9                     u193_20:
  4753  01D9                     i1l2123:
  4754  01D9  0865               	movf	_average_temp+1,w	;volatile
  4755  01DA  00F8               	movwf	??_ADC_IRQ_Handler+1
  4756  01DB  0867               	movf	_desired_temp,w	;volatile
  4757  01DC  0264               	subwf	_average_temp,w	;volatile
  4758  01DD  00F7               	movwf	??_ADC_IRQ_Handler
  4759  01DE  1C03               	skipc
  4760  01DF  03F8               	decf	??_ADC_IRQ_Handler+1,f
  4761  01E0  3000               	movlw	0
  4762  01E1  0278               	subwf	??_ADC_IRQ_Handler+1,w
  4763  01E2  3006               	movlw	6
  4764  01E3  1903               	skipnz
  4765  01E4  0277               	subwf	??_ADC_IRQ_Handler,w
  4766  01E5  1C03               	skipc
  4767  01E6  29E8               	goto	u194_21
  4768  01E7  29E9               	goto	u194_20
  4769  01E8                     u194_21:
  4770  01E8  29F9               	goto	i1l2133
  4771  01E9                     u194_20:
  4772  01E9                     i1l2125:
  4773  01E9  0859               	movf	_cooler_state,w	;volatile
  4774  01EA  1D03               	btfss	3,2
  4775  01EB  29ED               	goto	u195_21
  4776  01EC  29EE               	goto	u195_20
  4777  01ED                     u195_21:
  4778  01ED  29F9               	goto	i1l2133
  4779  01EE                     u195_20:
  4780  01EE                     i1l2127:
  4781  01EE  085A               	movf	_heater_state,w	;volatile
  4782  01EF  1D03               	btfss	3,2
  4783  01F0  29F2               	goto	u196_21
  4784  01F1  29F3               	goto	u196_20
  4785  01F2                     u196_21:
  4786  01F2  29F9               	goto	i1l2133
  4787  01F3                     u196_20:
  4788  01F3                     i1l2129:
  4789                           
  4790                           ;src/pic_int.c: 247:         {;src/pic_int.c: 249:             PORTC |= ( 1 << 2 );coole
      +                          r_state = 1;
  4791  01F3  1507               	bsf	7,2	;volatile
  4792  01F4                     i1l2131:
  4793  01F4  3001               	movlw	1
  4794  01F5  00FF               	movwf	btemp+1
  4795  01F6  087F               	movf	btemp+1,w
  4796  01F7  00D9               	movwf	_cooler_state	;volatile
  4797                           
  4798                           ;src/pic_int.c: 250:         }
  4799  01F8  2A4B               	goto	i1l2153
  4800  01F9                     i1l2133:
  4801  01F9  0867               	movf	_desired_temp,w	;volatile
  4802  01FA  00F7               	movwf	??_ADC_IRQ_Handler
  4803  01FB  01F8               	clrf	??_ADC_IRQ_Handler+1
  4804  01FC  0865               	movf	_average_temp+1,w	;volatile
  4805  01FD  0278               	subwf	??_ADC_IRQ_Handler+1,w
  4806  01FE  1D03               	skipz
  4807  01FF  2A02               	goto	u197_25
  4808  0200  0864               	movf	_average_temp,w	;volatile
  4809  0201  0277               	subwf	??_ADC_IRQ_Handler,w
  4810  0202                     u197_25:
  4811  0202  1803               	skipnc
  4812  0203  2A05               	goto	u197_21
  4813  0204  2A06               	goto	u197_20
  4814  0205                     u197_21:
  4815  0205  2A21               	goto	i1l2143
  4816  0206                     u197_20:
  4817  0206                     i1l2135:
  4818  0206  0865               	movf	_average_temp+1,w	;volatile
  4819  0207  00F8               	movwf	??_ADC_IRQ_Handler+1
  4820  0208  0867               	movf	_desired_temp,w	;volatile
  4821  0209  0264               	subwf	_average_temp,w	;volatile
  4822  020A  00F7               	movwf	??_ADC_IRQ_Handler
  4823  020B  1C03               	skipc
  4824  020C  03F8               	decf	??_ADC_IRQ_Handler+1,f
  4825  020D  3000               	movlw	0
  4826  020E  0278               	subwf	??_ADC_IRQ_Handler+1,w
  4827  020F  3002               	movlw	2
  4828  0210  1903               	skipnz
  4829  0211  0277               	subwf	??_ADC_IRQ_Handler,w
  4830  0212  1C03               	skipc
  4831  0213  2A15               	goto	u198_21
  4832  0214  2A16               	goto	u198_20
  4833  0215                     u198_21:
  4834  0215  2A21               	goto	i1l2143
  4835  0216                     u198_20:
  4836  0216                     i1l2137:
  4837  0216  035A               	decf	_heater_state,w	;volatile
  4838  0217  1D03               	btfss	3,2
  4839  0218  2A1A               	goto	u199_21
  4840  0219  2A1B               	goto	u199_20
  4841  021A                     u199_21:
  4842  021A  2A21               	goto	i1l2143
  4843  021B                     u199_20:
  4844  021B                     i1l2139:
  4845                           
  4846                           ;src/pic_int.c: 252:     {;src/pic_int.c: 253:         PORTC &= ~( 1 << 5 );heater_state
      +                           = 0;
  4847  021B  30DF               	movlw	223
  4848  021C  00FF               	movwf	btemp+1
  4849  021D  087F               	movf	btemp+1,w
  4850  021E  0587               	andwf	7,f	;volatile
  4851  021F                     i1l2141:
  4852  021F  01DA               	clrf	_heater_state	;volatile
  4853                           
  4854                           ;src/pic_int.c: 254:     }
  4855  0220  2A4B               	goto	i1l2153
  4856  0221                     i1l2143:
  4857  0221  0867               	movf	_desired_temp,w	;volatile
  4858  0222  00F7               	movwf	??_ADC_IRQ_Handler
  4859  0223  01F8               	clrf	??_ADC_IRQ_Handler+1
  4860  0224  0878               	movf	??_ADC_IRQ_Handler+1,w
  4861  0225  0265               	subwf	_average_temp+1,w	;volatile
  4862  0226  1D03               	skipz
  4863  0227  2A2A               	goto	u200_25
  4864  0228  0877               	movf	??_ADC_IRQ_Handler,w
  4865  0229  0264               	subwf	_average_temp,w	;volatile
  4866  022A                     u200_25:
  4867  022A  1803               	skipnc
  4868  022B  2A2D               	goto	u200_21
  4869  022C  2A2E               	goto	u200_20
  4870  022D                     u200_21:
  4871  022D  2A4B               	goto	i1l233
  4872  022E                     u200_20:
  4873  022E                     i1l2145:
  4874  022E  0867               	movf	_desired_temp,w	;volatile
  4875  022F  00F7               	movwf	??_ADC_IRQ_Handler
  4876  0230  0864               	movf	_average_temp,w	;volatile
  4877  0231  0277               	subwf	??_ADC_IRQ_Handler,w
  4878  0232  00F8               	movwf	??_ADC_IRQ_Handler+1
  4879  0233  0965               	comf	_average_temp+1,w	;volatile
  4880  0234  1803               	skipnc
  4881  0235  3E01               	addlw	1
  4882  0236  00F9               	movwf	??_ADC_IRQ_Handler+2
  4883  0237  3000               	movlw	0
  4884  0238  0279               	subwf	??_ADC_IRQ_Handler+2,w
  4885  0239  3002               	movlw	2
  4886  023A  1903               	skipnz
  4887  023B  0278               	subwf	??_ADC_IRQ_Handler+1,w
  4888  023C  1C03               	skipc
  4889  023D  2A3F               	goto	u201_21
  4890  023E  2A40               	goto	u201_20
  4891  023F                     u201_21:
  4892  023F  2A4B               	goto	i1l233
  4893  0240                     u201_20:
  4894  0240                     i1l2147:
  4895  0240  0359               	decf	_cooler_state,w	;volatile
  4896  0241  1D03               	btfss	3,2
  4897  0242  2A44               	goto	u202_21
  4898  0243  2A45               	goto	u202_20
  4899  0244                     u202_21:
  4900  0244  2A4B               	goto	i1l233
  4901  0245                     u202_20:
  4902  0245                     i1l2149:
  4903                           
  4904                           ;src/pic_int.c: 256:     {;src/pic_int.c: 257:        PORTC &= ~( 1 << 2 );cooler_state 
      +                          = 0;
  4905  0245  30FB               	movlw	251
  4906  0246  00FF               	movwf	btemp+1
  4907  0247  087F               	movf	btemp+1,w
  4908  0248  0587               	andwf	7,f	;volatile
  4909  0249                     i1l2151:
  4910  0249  01D9               	clrf	_cooler_state	;volatile
  4911  024A  2A4B               	goto	i1l2153
  4912  024B                     i1l233:
  4913  024B                     i1l2153:
  4914                           
  4915                           ;src/pic_int.c: 261:     if ( heater_state == 1 )
  4916  024B  035A               	decf	_heater_state,w	;volatile
  4917  024C  1D03               	btfss	3,2
  4918  024D  2A4F               	goto	u203_21
  4919  024E  2A50               	goto	u203_20
  4920  024F                     u203_21:
  4921  024F  2A6A               	goto	i1l2167
  4922  0250                     u203_20:
  4923  0250                     i1l2155:
  4924                           
  4925                           ;src/pic_int.c: 262:     {;src/pic_int.c: 263:         if ( (++heat_led_count) >= 10 )
  4926  0250  3001               	movlw	1
  4927  0251  00FF               	movwf	btemp+1
  4928  0252  087F               	movf	btemp+1,w
  4929  0253  07CF               	addwf	ADC_IRQ_Handler@heat_led_count,f
  4930  0254  300A               	movlw	10
  4931  0255  024F               	subwf	ADC_IRQ_Handler@heat_led_count,w
  4932  0256  1C03               	skipc
  4933  0257  2A59               	goto	u204_21
  4934  0258  2A5A               	goto	u204_20
  4935  0259                     u204_21:
  4936  0259  2A75               	goto	i1l244
  4937  025A                     u204_20:
  4938  025A                     i1l2157:
  4939                           
  4940                           ;src/pic_int.c: 264:         {;src/pic_int.c: 265:             if ( !heat_led_toggle )
  4941  025A  084E               	movf	ADC_IRQ_Handler@heat_led_toggle,w
  4942  025B  1D03               	btfss	3,2
  4943  025C  2A5E               	goto	u205_21
  4944  025D  2A5F               	goto	u205_20
  4945  025E                     u205_21:
  4946  025E  2A63               	goto	i1l2161
  4947  025F                     u205_20:
  4948  025F                     i1l2159:
  4949                           
  4950                           ;src/pic_int.c: 266:             {;src/pic_int.c: 267:                 PORTB|= ( 1 << 7 
      +                          );
  4951  025F  1786               	bsf	6,7	;volatile
  4952                           
  4953                           ;src/pic_int.c: 268:                 heat_led_toggle =1 ;
  4954  0260  01CE               	clrf	ADC_IRQ_Handler@heat_led_toggle
  4955  0261  0ACE               	incf	ADC_IRQ_Handler@heat_led_toggle,f
  4956                           
  4957                           ;src/pic_int.c: 269:             }
  4958  0262  2A68               	goto	i1l2165
  4959  0263                     i1l2161:
  4960                           
  4961                           ;src/pic_int.c: 271:                 PORTB &= ~ ( 1 << 7 );
  4962  0263  307F               	movlw	127
  4963  0264  00FF               	movwf	btemp+1
  4964  0265  087F               	movf	btemp+1,w
  4965  0266  0586               	andwf	6,f	;volatile
  4966  0267                     i1l2163:
  4967                           
  4968                           ;src/pic_int.c: 272:                 heat_led_toggle = 0 ;
  4969  0267  01CE               	clrf	ADC_IRQ_Handler@heat_led_toggle
  4970  0268                     i1l2165:
  4971                           
  4972                           ;src/pic_int.c: 274:             heat_led_count = 0 ;
  4973  0268  01CF               	clrf	ADC_IRQ_Handler@heat_led_count
  4974  0269  2A75               	goto	i1l244
  4975  026A                     i1l2167:
  4976  026A  0359               	decf	_cooler_state,w	;volatile
  4977  026B  1D03               	btfss	3,2
  4978  026C  2A6E               	goto	u206_21
  4979  026D  2A6F               	goto	u206_20
  4980  026E                     u206_21:
  4981  026E  2A71               	goto	i1l2171
  4982  026F                     u206_20:
  4983  026F                     i1l2169:
  4984                           
  4985                           ;src/pic_int.c: 281:     {;src/pic_int.c: 282:      PORTB|= ( 1 << 7 );
  4986  026F  1786               	bsf	6,7	;volatile
  4987                           
  4988                           ;src/pic_int.c: 284:     }
  4989  0270  2A75               	goto	i1l244
  4990  0271                     i1l2171:
  4991                           
  4992                           ;src/pic_int.c: 286:         PORTB &= ~ ( 1 << 7 );
  4993  0271  307F               	movlw	127
  4994  0272  00FF               	movwf	btemp+1
  4995  0273  087F               	movf	btemp+1,w
  4996  0274  0586               	andwf	6,f	;volatile
  4997  0275                     i1l244:
  4998  0275  0008               	return
  4999  0276                     __end_of_ADC_IRQ_Handler:
  5000                           
  5001                           	psect	text27
  5002  06AE                     __ptext27:	
  5003 ;; *************** function ___lwdiv *****************
  5004 ;; Defined at:
  5005 ;;		line 5 in file "C:\Program Files\Microchip\xc8\v2.20\pic\sources\c90\common\lwdiv.c"
  5006 ;; Parameters:    Size  Location     Type
  5007 ;;  divisor         2    0[COMMON] unsigned int 
  5008 ;;  dividend        2    2[COMMON] unsigned int 
  5009 ;; Auto vars:     Size  Location     Type
  5010 ;;  quotient        2    4[COMMON] unsigned int 
  5011 ;;  counter         1    6[COMMON] unsigned char 
  5012 ;; Return value:  Size  Location     Type
  5013 ;;                  2    0[COMMON] unsigned int 
  5014 ;; Registers used:
  5015 ;;		wreg, status,2, status,0, btemp+1
  5016 ;; Tracked objects:
  5017 ;;		On entry : 0/0
  5018 ;;		On exit  : 0/0
  5019 ;;		Unchanged: 0/0
  5020 ;; Data sizes:     COMMON   BANK0   BANK1   BANK3   BANK2
  5021 ;;      Params:         4       0       0       0       0
  5022 ;;      Locals:         3       0       0       0       0
  5023 ;;      Temps:          0       0       0       0       0
  5024 ;;      Totals:         7       0       0       0       0
  5025 ;;Total ram usage:        7 bytes
  5026 ;; Hardware stack levels used:    1
  5027 ;; This function calls:
  5028 ;;		Nothing
  5029 ;; This function is called by:
  5030 ;;		_ADC_IRQ_Handler
  5031 ;; This function uses a non-reentrant model
  5032 ;;
  5033                           
  5034                           
  5035                           ;psect for function ___lwdiv
  5036  06AE                     ___lwdiv:
  5037  06AE                     i1l1859:	
  5038                           ;incstack = 0
  5039                           ; Regs used in ___lwdiv: [wreg+status,2+status,0+btemp+1]
  5040                           
  5041  06AE  01F4               	clrf	___lwdiv@quotient
  5042  06AF  01F5               	clrf	___lwdiv@quotient+1
  5043  06B0                     i1l1861:
  5044  06B0  0870               	movf	___lwdiv@divisor,w
  5045  06B1  0471               	iorwf	___lwdiv@divisor+1,w
  5046  06B2  1903               	btfsc	3,2
  5047  06B3  2EB5               	goto	u145_21
  5048  06B4  2EB6               	goto	u145_20
  5049  06B5                     u145_21:
  5050  06B5  2EED               	goto	i1l1881
  5051  06B6                     u145_20:
  5052  06B6                     i1l1863:
  5053  06B6  01F6               	clrf	___lwdiv@counter
  5054  06B7  0AF6               	incf	___lwdiv@counter,f
  5055  06B8  2EC4               	goto	i1l1869
  5056  06B9                     i1l1865:
  5057  06B9  3001               	movlw	1
  5058  06BA                     u146_25:
  5059  06BA  1003               	clrc
  5060  06BB  0DF0               	rlf	___lwdiv@divisor,f
  5061  06BC  0DF1               	rlf	___lwdiv@divisor+1,f
  5062  06BD  3EFF               	addlw	-1
  5063  06BE  1D03               	skipz
  5064  06BF  2EBA               	goto	u146_25
  5065  06C0                     i1l1867:
  5066  06C0  3001               	movlw	1
  5067  06C1  00FF               	movwf	btemp+1
  5068  06C2  087F               	movf	btemp+1,w
  5069  06C3  07F6               	addwf	___lwdiv@counter,f
  5070  06C4                     i1l1869:
  5071  06C4  1FF1               	btfss	___lwdiv@divisor+1,7
  5072  06C5  2EC7               	goto	u147_21
  5073  06C6  2EC8               	goto	u147_20
  5074  06C7                     u147_21:
  5075  06C7  2EB9               	goto	i1l1865
  5076  06C8                     u147_20:
  5077  06C8                     i1l1871:
  5078  06C8  3001               	movlw	1
  5079  06C9                     u148_25:
  5080  06C9  1003               	clrc
  5081  06CA  0DF4               	rlf	___lwdiv@quotient,f
  5082  06CB  0DF5               	rlf	___lwdiv@quotient+1,f
  5083  06CC  3EFF               	addlw	-1
  5084  06CD  1D03               	skipz
  5085  06CE  2EC9               	goto	u148_25
  5086  06CF  0871               	movf	___lwdiv@divisor+1,w
  5087  06D0  0273               	subwf	___lwdiv@dividend+1,w
  5088  06D1  1D03               	skipz
  5089  06D2  2ED5               	goto	u149_25
  5090  06D3  0870               	movf	___lwdiv@divisor,w
  5091  06D4  0272               	subwf	___lwdiv@dividend,w
  5092  06D5                     u149_25:
  5093  06D5  1C03               	skipc
  5094  06D6  2ED8               	goto	u149_21
  5095  06D7  2ED9               	goto	u149_20
  5096  06D8                     u149_21:
  5097  06D8  2EE0               	goto	i1l1877
  5098  06D9                     u149_20:
  5099  06D9                     i1l1873:
  5100  06D9  0870               	movf	___lwdiv@divisor,w
  5101  06DA  02F2               	subwf	___lwdiv@dividend,f
  5102  06DB  0871               	movf	___lwdiv@divisor+1,w
  5103  06DC  1C03               	skipc
  5104  06DD  03F3               	decf	___lwdiv@dividend+1,f
  5105  06DE  02F3               	subwf	___lwdiv@dividend+1,f
  5106  06DF                     i1l1875:
  5107  06DF  1474               	bsf	___lwdiv@quotient,0
  5108  06E0                     i1l1877:
  5109  06E0  3001               	movlw	1
  5110  06E1                     u150_25:
  5111  06E1  1003               	clrc
  5112  06E2  0CF1               	rrf	___lwdiv@divisor+1,f
  5113  06E3  0CF0               	rrf	___lwdiv@divisor,f
  5114  06E4  3EFF               	addlw	-1
  5115  06E5  1D03               	skipz
  5116  06E6  2EE1               	goto	u150_25
  5117  06E7                     i1l1879:
  5118  06E7  3001               	movlw	1
  5119  06E8  02F6               	subwf	___lwdiv@counter,f
  5120  06E9  1D03               	btfss	3,2
  5121  06EA  2EEC               	goto	u151_21
  5122  06EB  2EED               	goto	u151_20
  5123  06EC                     u151_21:
  5124  06EC  2EC8               	goto	i1l1871
  5125  06ED                     u151_20:
  5126  06ED                     i1l1881:
  5127  06ED  0875               	movf	___lwdiv@quotient+1,w
  5128  06EE  00F1               	movwf	?___lwdiv+1
  5129  06EF  0874               	movf	___lwdiv@quotient,w
  5130  06F0  00F0               	movwf	?___lwdiv
  5131  06F1                     i1l719:
  5132  06F1  0008               	return
  5133  06F2                     __end_of___lwdiv:
  5134  007E                     btemp	set	126	;btemp
  5135  007E                     wtemp0	set	126
  5136                           
  5137                           	psect	config
  5138                           
  5139                           ;Config register CONFIG @ 0x2007
  5140                           ;	Oscillator Selection bits
  5141                           ;	FOSC = HS, HS oscillator
  5142                           ;	Watchdog Timer Enable bit
  5143                           ;	WDTE = ON, WDT enabled
  5144                           ;	Power-up Timer Enable bit
  5145                           ;	PWRTE = OFF, PWRT disabled
  5146                           ;	Brown-out Reset Enable bit
  5147                           ;	BOREN = ON, BOR enabled
  5148                           ;	Low-Voltage (Single-Supply) In-Circuit Serial Programming Enable bit
  5149                           ;	LVP = OFF, RB3 is digital I/O, HV on MCLR must be used for programming
  5150                           ;	Data EEPROM Memory Code Protection bit
  5151                           ;	CPD = OFF, Data EEPROM code protection off
  5152                           ;	Flash Program Memory Write Enable bits
  5153                           ;	WRT = OFF, Write protection off; all program memory may be written to by EECON control
  5154                           ;	In-Circuit Debugger Mode bit
  5155                           ;	DEBUG = 0x1, unprogrammed default
  5156                           ;	Flash Program Memory Code Protection bit
  5157                           ;	CP = OFF, Code protection off
  5158  2007                     	org	8199
  5159  2007  3F7E               	dw	16254

Data Sizes:
    Strings     0
    Constant    10
    Data        20
    BSS         18
    Persistent  0
    Stack       0

Auto Spaces:
    Space          Size  Autos    Used
    COMMON           14     14      14
    BANK0            80     44      73
    BANK1            80      5      14
    BANK3            96      0       0
    BANK2            96      0       0

Pointer List with Targets:

    I2C_Init@i2ch	PTR struct . size(1) Largest target is 9
		 -> system_startup@my_i2c_s(BANK0[9]), 

    ADC_Init@config_s_ptr	PTR struct . size(1) Largest target is 6
		 -> system_startup@my_s(BANK0[6]), 


Critical Paths under _main in COMMON

    None.

Critical Paths under _ISR in COMMON

    _TIMER1_IRQ_Handler->_WriteSegVal
    _WriteSegVal->___awdiv
    _ADC_IRQ_Handler->___lwdiv

Critical Paths under _main in BANK0

    _main->_system_startup
    _system_startup->_I2C_Init
    _I2C_Init->___lldiv
    _eepByteWrite->_I2C_Transmit
    _eepByteRead->_I2C_Receive_NACK
    _eepByteRead->_I2C_Transmit

Critical Paths under _ISR in BANK0

    _ISR->_TIMER1_IRQ_Handler

Critical Paths under _main in BANK1

    None.

Critical Paths under _ISR in BANK1

    None.

Critical Paths under _main in BANK3

    None.

Critical Paths under _ISR in BANK3

    None.

Critical Paths under _main in BANK2

    None.

Critical Paths under _ISR in BANK2

    None.

Call Graph Tables:

 ---------------------------------------------------------------------------------
 (Depth) Function   	        Calls       Base Space   Used Autos Params    Refs
 ---------------------------------------------------------------------------------
 (0) _main                                                 5     5      0    2284
                                              0 BANK1      5     5      0
                        _eepByteRead
                       _eepByteWrite
                     _system_startup
 ---------------------------------------------------------------------------------
 (1) _system_startup                                      19    19      0    1479
                                             25 BANK0     19    19      0
                           _ADC_Init
                        _DisplayInit
                           _I2C_Init
                          _TIM1_Init
 ---------------------------------------------------------------------------------
 (2) _TIM1_Init                                            0     0      0       0
 ---------------------------------------------------------------------------------
 (2) _I2C_Init                                             5     5      0     922
                                             20 BANK0      5     5      0
                            ___lldiv
 ---------------------------------------------------------------------------------
 (3) ___lldiv                                             14     6      8     421
                                              6 BANK0     14     6      8
 ---------------------------------------------------------------------------------
 (2) _DisplayInit                                          0     0      0       0
                  _TIMER2_SETUP_60HZ
 ---------------------------------------------------------------------------------
 (3) _TIMER2_SETUP_60HZ                                    0     0      0       0
 ---------------------------------------------------------------------------------
 (2) _ADC_Init                                             5     5      0     408
                                              6 BANK0      5     5      0
                      _ADC_ClearFlag
                      _ADC_EnableINT
                   _ADC_StartConv_NB
 ---------------------------------------------------------------------------------
 (3) _ADC_StartConv_NB                                     0     0      0       0
 ---------------------------------------------------------------------------------
 (3) _ADC_EnableINT                                        0     0      0       0
 ---------------------------------------------------------------------------------
 (3) _ADC_ClearFlag                                        0     0      0       0
 ---------------------------------------------------------------------------------
 (1) _eepByteWrite                                         6     4      2     347
                                              7 BANK0      6     4      2
                          _I2C_Start
                           _I2C_Stop
                       _I2C_Transmit
 ---------------------------------------------------------------------------------
 (1) _eepByteRead                                          6     4      2     325
                                              7 BANK0      6     4      2
                   _I2C_Receive_NACK
                        _I2C_Restart
                          _I2C_Start
                           _I2C_Stop
                       _I2C_Transmit
 ---------------------------------------------------------------------------------
 (2) _I2C_Transmit                                         1     1      0      31
                                              6 BANK0      1     1      0
                           _I2C_Halt
 ---------------------------------------------------------------------------------
 (2) _I2C_Stop                                             0     0      0       0
                           _I2C_Halt
 ---------------------------------------------------------------------------------
 (2) _I2C_Start                                            0     0      0       0
                           _I2C_Halt
 ---------------------------------------------------------------------------------
 (2) _I2C_Restart                                          0     0      0       0
                           _I2C_Halt
 ---------------------------------------------------------------------------------
 (2) _I2C_Receive_NACK                                     1     1      0      34
                                              6 BANK0      1     1      0
                           _I2C_Halt
 ---------------------------------------------------------------------------------
 (3) _I2C_Halt                                             0     0      0       0
 ---------------------------------------------------------------------------------
 Estimated maximum stack depth 3
 ---------------------------------------------------------------------------------
 (Depth) Function   	        Calls       Base Space   Used Autos Params    Refs
 ---------------------------------------------------------------------------------
 (4) _ISR                                                  4     4      0    1258
                                              2 BANK0      4     4      0
                    _ADC_IRQ_Handler
                 _TIMER1_IRQ_Handler
                 _TIMER2_IRQ_Handler
 ---------------------------------------------------------------------------------
 (6) _TIMER2_IRQ_Handler                                   1     1      0       0
                                              0 COMMON     1     1      0
 ---------------------------------------------------------------------------------
 (5) _TIMER1_IRQ_Handler                                   2     2      0     944
                                              0 BANK0      2     2      0
                        _WriteSegVal
                 i1_ADC_StartConv_NB
 ---------------------------------------------------------------------------------
 (6) i1_ADC_StartConv_NB                                   0     0      0       0
 ---------------------------------------------------------------------------------
 (6) _WriteSegVal                                          6     6      0     944
                                              8 COMMON     6     6      0
                            ___awdiv
                            ___awmod
 ---------------------------------------------------------------------------------
 (7) ___awmod                                              6     2      4     448
                                              0 COMMON     6     2      4
 ---------------------------------------------------------------------------------
 (7) ___awdiv                                              8     4      4     452
                                              0 COMMON     8     4      4
 ---------------------------------------------------------------------------------
 (5) _ADC_IRQ_Handler                                      3     3      0     314
                                              7 COMMON     3     3      0
                            ___lwdiv
 ---------------------------------------------------------------------------------
 (6) ___lwdiv                                              7     3      4     314
                                              0 COMMON     7     3      4
 ---------------------------------------------------------------------------------
 Estimated maximum stack depth 7
 ---------------------------------------------------------------------------------

 Call Graph Graphs:

 _main (ROOT)
   _eepByteRead
     _I2C_Receive_NACK
       _I2C_Halt
     _I2C_Restart
       _I2C_Halt
     _I2C_Start
       _I2C_Halt
     _I2C_Stop
       _I2C_Halt
     _I2C_Transmit
       _I2C_Halt
   _eepByteWrite
     _I2C_Start
       _I2C_Halt
     _I2C_Stop
       _I2C_Halt
     _I2C_Transmit
       _I2C_Halt
   _system_startup
     _ADC_Init
       _ADC_ClearFlag
       _ADC_EnableINT
       _ADC_StartConv_NB
     _DisplayInit
       _TIMER2_SETUP_60HZ
     _I2C_Init
       ___lldiv
     _TIM1_Init

 _ISR (ROOT)
   _ADC_IRQ_Handler
     ___lwdiv
   _TIMER1_IRQ_Handler
     _WriteSegVal
       ___awdiv
       ___awmod
     i1_ADC_StartConv_NB
   _TIMER2_IRQ_Handler

 Address spaces:
Name               Size   Autos  Total    Cost      Usage
BANK3               60      0       0       9        0.0%
BITBANK3            60      0       0       8        0.0%
SFR3                 0      0       0       4        0.0%
BITSFR3              0      0       0       4        0.0%
BANK2               60      0       0      11        0.0%
BITBANK2            60      0       0      10        0.0%
SFR2                 0      0       0       5        0.0%
BITSFR2              0      0       0       5        0.0%
BANK1               50      5       E       7       17.5%
BITBANK1            50      0       0       6        0.0%
SFR1                 0      0       0       2        0.0%
BITSFR1              0      0       0       2        0.0%
BANK0               50     2C      49       5       91.2%
BITBANK0            50      0       0       4        0.0%
SFR0                 0      0       0       1        0.0%
BITSFR0              0      0       0       1        0.0%
COMMON               E      E       E       1      100.0%
BITCOMMON            E      0       0       0        0.0%
CODE                 0      0       0       0        0.0%
DATA                 0      0      65      12        0.0%
ABS                  0      0      65       3        0.0%
NULL                 0      0       0       0        0.0%
STACK                0      0       0       2        0.0%
EEDATA             100      0       0       0        0.0%


Microchip Technology PIC Macro Assembler V2.20 build 20200408173844 
Symbol Table                                                                                   Fri Jul 03 17:22:28 2020

                                    pc 0002                     __size_of_I2C_Start 0009  
                                   l70 03CE                                     l57 0541  
                                   l96 0F88                                     l99 0F7D  
                         ___awdiv@sign 0075                                     fsr 0004  
                                  l111 0F81                                    l123 0469  
                                  l321 0FCC                                    l330 0F99  
                                  l324 0FA2                                    l309 0333  
                                  l318 0FC0                                    l334 07EE  
                                  l343 07B9                                    l327 0FAB  
                                  l280 0FDC                                    l361 04D8  
                                  l283 07D8                                    l357 0730  
                                  l277 0FEC                                    l483 05A9  
                 __size_of_WriteSegVal 0031                                    _PR2 0092  
                                  _ISR 0731                                    fsr0 0004  
                                  indf 0000                           ___awmod@sign 0075  
               system_startup@my_i2c_s 0043                   __size_of_I2C_Restart 0009  
                 __end_of_eepByteWrite 0731                                   ?_ISR 0070  
             TIMER2_IRQ_Handler@decode 07F5                                   l2301 05A1  
                                 l2311 0292                                   l2401 0FA3  
                                 l2321 02D4                                   l2313 029A  
                                 l2305 0279                                   l2403 0FA8  
                                 l2411 07E1                                   l2331 030F  
                                 l2323 02DC                                   l2315 02A2  
                                 l2307 0282                                   l2405 0F91  
                                 l2413 07E5                                   l2261 0F82  
                                 l2341 0329                                   l2333 0317  
                                 l2325 02E0                                   l2309 028A  
                                 l2317 02AA                                   l2431 07B2  
                                 l2423 079A                                   l2407 0F96  
                                 l2415 07EB                                   l2511 0720  
                                 l2503 06F5                                   l2263 0F7A  
                                 l2351 03E0                                   l2271 0FD6  
                                 l2343 032A                                   l2335 031F  
                                 l2327 02E3                                   l2319 02CB  
                                 l2433 07B5                                   l2425 079F  
                                 l2409 07DC                                   l2513 072B  
                                 l2505 06F6                                   l2265 0F7E  
                                 l2361 0431                                   l2353 03E8  
                                 l2273 0FD8                                   l2281 0554  
                                 l2345 032B                                   l2337 0325  
                                 l2329 02EC                                   l2441 04DD  
                                 l2521 0339                                   l2275 0FC0  
                                 l2435 07B6                                   l2427 07A7  
                                 l2419 07ED                                   l2507 06FB  
                                 l2363 0436                                   l2355 03F1  
                                 l2267 0FCD                                   l2291 0571  
                                 l2283 0557                                   l2339 0328  
                                 l2451 0514                                   l2443 04E0  
                                 l2531 035F                                   l2523 0341  
                                 l2277 0FC6                                   l2429 07AD  
                                 l2509 0715                                   l2365 0454  
                                 l2357 03FA                                   l2349 03D6  
                                 l2269 0FD3                                   l2293 0583  
                                 l2285 0560                                   l2381 0FEA  
                                 l2373 0FDD                                   l2461 051F  
                                 l2453 051A                                   l2445 04E5  
                                 l2541 037D                                   l2533 0365  
                                 l2525 0342                                   l2367 045C  
                                 l2359 042C                                   l2391 07CB  
                                 l2383 07BA                                   l2295 0591  
                                 l2287 0564                                   l2279 0542  
                                 l2375 0FE3                                   l2471 053A  
                                 l2463 0523                                   l2455 051B  
                                 l2447 04FB                                   l2439 04D9  
                                 l2551 038F                                   l2535 036B  
                                 l2527 034E                                   l2543 0381  
                                 l2519 0334                                   l2481 0472  
                                 l2369 0464                                   l2393 07CF  
                                 l2385 07BD                                   l2297 0592  
                                 l2289 0568                                   l2377 0FE6  
                                 l2473 053F                                   l2465 0529  
                                 l2457 051C                                   l2449 0510  
                                 l2561 03AC                                   l2553 0393  
                                 l2545 0386                                   l2537 0370  
                                 l2529 034F                                   l2491 04C0  
                                 l2483 048C                                   l2395 07D3  
                                 l2387 07C1                                   l2299 059B  
                                 l2379 0FE9                                   l2475 0540  
                                 l2467 052F                                   l2459 051D  
                                 l2563 03AD                                   l2555 0398  
                                 l2547 0387                                   l2571 03BE  
                                 l2539 0377                                   l2397 0F9A  
                                 l2493 04C5                                   l2485 0497  
                                 l2477 046A                                   l2389 07C5  
                                 l2469 0535                                   l2573 03C4  
                                 l2565 03B2                                   l2557 03A1  
                                 l2549 038B                                   l2399 0F9F  
                                 l2495 04CC                                   l2487 049C  
                                 l2479 046D                                   l2567 03B6  
                                 l2559 03A8                                   l2489 04B6  
                                 l2569 03B7                                   l2499 04D4  
                                 u2200 0554                                   u2201 0553  
                                 u2220 0568                                   u2300 029A  
                                 u2221 0567                                   u2301 0299  
                                 u2310 02A2                                   u2215 0559  
                                 u2311 02A1                                   u2400 03E8  
                                 u2240 0583                                   u2320 02AA  
                                 u2401 03E7                                   u2241 0582  
                                 u2321 02A9                                   u2410 03F1  
                                 u2330 02CB                                   u2411 03F0  
                                 u2235 056A                                   u2331 02CA  
                                 u2180 0FC6                                   u2500 0464  
                                 u2420 03F9                                   u2260 05A1  
                                 u2340 02D3                                   u2181 0FC5  
                                 u2501 0463                                   u2421 03F8  
                                 u2261 05A0                                   u2245 057F  
                                 u2341 02D2                                   u2333 02C7  
                                 u2190 0FCC                                   u2510 07EB  
                                 u2350 02DC                                   u2270 0282  
                                 u2191 0FCB                                   u2511 07EA  
                                 u2255 0593                                   u2351 02DB  
                                 u2271 0281                                   u2360 02EC  
                                 u2280 028A                                   u2520 0503  
                                 u2600 0386                                   u2361 02EB  
                                 u2281 0289                                   u2601 0385  
                                 u2370 0317                                   u2290 0292  
                                 u2610 03A8                                   u2435 0403  
                                 u2371 0316                                   u2291 0291  
                                 u2611 03A7                                   u2460 042C  
                                 u2380 031F                                   u2620 03B2  
                                 u2461 042B                                   u2445 040B  
                                 u2381 031E                                   u2621 03B1  
                                 u2550 04CC                                   u2390 03E0  
                                 u2630 03C4                                   u2551 04CB  
                                 u2535 0479                                   u2455 0416  
                                 u2391 03DF                                   u2631 03C3  
                                 _PIE1 008C                                   u2545 04A3  
                                 u2490 045C                                   u2570 0341  
                                 u2491 045B                                   u2475 043F  
                                 u2571 0340                                   u2580 0365  
                                 u2565 0702                                   u2485 044A  
                                 u2581 0364                                   u2590 036B  
                                 u2591 036A                                   _PIR1 000C  
                                 _TMR0 0001                                   _main 0334  
                     __end_of_I2C_Halt 0FCD                       __end_of_I2C_Init 0334  
                                 btemp 007E                       __end_of_I2C_Stop 0FAC  
                     __end_of_ADC_Init 046A                                   start 0012  
        ADC_IRQ_Handler@heat_led_count 004F                      ?_ADC_StartConv_NB 0070  
                   ??_ADC_StartConv_NB 0026                                  ??_ISR 0022  
                __size_of_I2C_Transmit 0016                    __end_of_DisplayInit 07D9  
                                ?_main 0070                        __end_of___awdiv 0611  
                      __end_of___awmod 066A                        __end_of___lldiv 05AA  
                      ___awdiv@divisor 0070                                  _T1CON 0010  
                                _T2CON 0012                     __size_of_TIM1_Init 0010  
                      __end_of___lwdiv 06F2                                  i1l111 0F79  
                                i1l233 024B                                  i1l217 0163  
                                i1l162 0799                                  i1l251 074F  
                                i1l244 0275                                  i1l173 06AD  
                                i1l254 075C                                  i1l600 0610  
                                i1l192 006B                                  i1l249 0741  
                                i1l194 0066                                  i1l196 00AB  
                                i1l613 0669                                  i1l719 06F1  
                      ___awdiv@counter 0074                                  _TMR1H 000F  
                                _TMR1L 000E                                  _PORTA 0005  
                                _PORTB 0006                                  _PORTC 0007  
                                _PORTD 0008                                  _TRISA 0085  
                                _TRISB 0086                                  _TRISC 0087  
                                _TRISD 0088                         _system_startup 04D9  
                 __size_of_eepByteRead 006F                      __end_of_I2C_Start 0FA3  
                                pclath 000A                                  status 0003  
                                wtemp0 007E            __size_ofi1_ADC_StartConv_NB 0004  
                   system_startup@my_s 003D                           _I2C_Transmit 07D9  
       ADC_IRQ_Handler@heat_led_toggle 004E                 __size_of_ADC_ClearFlag 0007  
                      __initialization 0015                           __end_of_main 03D3  
               __size_of_ADC_EnableINT 0004                                 ??_main 00A9  
               __end_of_system_startup 0542             __end_of_TIMER1_IRQ_Handler 0164  
                               _ADCON0 001F                                 _ADCON1 009F  
                               _ADRESH 001E                                 _ADRESL 009E  
                     ___awdiv@dividend 0072                   I2C_Receive_NACK@temp 0026  
                               u100_20 05AF                                 u100_21 05AE  
                               u101_20 05BA                                 u101_21 05B9  
                               u102_20 05CB                                 u110_20 0616  
                               u102_21 05CA                                 u110_21 0615  
                               i1l2001 0058                                 i1l2011 0079  
                               i1l2003 005D                                 i1l2101 0194  
                               i1l2021 009D                                 i1l2013 007D  
                               i1l2005 0062                                 i1l2111 01BB  
                               i1l2103 0195                                 i1l2031 00B9  
                               i1l2023 00A3                                 i1l2015 007E  
                               i1l2007 006F                                 u111_20 0621  
                               i1l2113 01C0                                 i1l2121 01CC  
                               i1l2105 0197                                 u111_21 0620  
                               i1l2041 00DD                                 i1l2033 00BD  
                               i1l2017 0083                                 i1l2009 0074  
                               i1l2025 00A4                                 i1l2131 01F4  
                               i1l2123 01D9                                 i1l2115 01C5  
                               i1l2107 019C                                 i1l2051 00F8  
                               i1l2043 00E1                                 i1l2035 00BE  
                               i1l2027 00AF                                 i1l2019 0089  
                               i1l2141 021F                                 i1l2125 01E9  
                               i1l2133 01F9                                 i1l2117 01C6  
                               i1l2109 01A9                                 u103_25 05CF  
                               i1l2061 0113                                 i1l2053 0104  
                               i1l2037 00C3                                 i1l2029 00B4  
                               i1l2045 00E2                                 i1l2151 0249  
                               i1l2135 0206                                 i1l2143 0221  
                               i1l2127 01EE                                 i1l2119 01CA  
                               i1l2063 0118                                 i1l2071 0130  
                               i1l2055 0109                                 i1l2039 00C9  
                               i1l2047 00E8                                 i1l2231 0731  
                               u200_20 022E                                 u104_20 05DD  
                               u112_20 062C                                 i1l2161 0263  
                               i1l2145 022E                                 u200_21 022D  
                               i1l2137 0216                                 i1l2129 01F3  
                               i1l2153 024B                                 u104_21 05DC  
                               u112_21 062B                                 i1l2081 014B  
                               i1l2073 013C                                 i1l2065 011D  
                               i1l2057 010D                                 i1l2049 00F2  
                               i1l2241 0753                                 i1l2233 0735  
                               i1l2171 0271                                 i1l2163 0267  
                               i1l2155 0250                                 i1l2147 0240  
                               i1l2139 021B                                 i1l2091 0160  
                               i1l2083 014F                                 i1l2075 0142  
                               i1l2067 0124                                 i1l2059 010E  
                               i1l2243 0757                                 i1l2235 073A  
                               i1l2165 0268                                 i1l2157 025A  
                               i1l2149 0245                                 u200_25 022A  
                               i1l2093 0164                                 i1l1701 062F  
                               i1l2085 0150                                 i1l2077 0147  
                               i1l2069 012A                                 i1l2237 0745  
                               i1l2159 025F                                 i1l2167 026A  
                               i1l2095 0177                                 i1l1711 064E  
                               i1l1703 0636                                 i1l2079 0148  
                               i1l2087 0151                                 i1l2239 0749  
                               u201_20 0240                                 i1l2169 026F  
                               u201_21 023F                                 i1l2097 017B  
                               i1l1641 05AA                                 i1l1713 0655  
                               i1l1705 063A                                 i1l2089 015B  
                               i1l2099 0181                                 i1l1651 05BA  
                               i1l1643 05AB                                 i1l1707 063E  
                               i1l1715 065B                                 u105_25 05DE  
                               i1l1661 05CE                                 i1l1653 05BF  
                               i1l1645 05AF                                 i1l1717 0660  
                               i1l1709 0648                                 u113_25 0630  
                               i1l1671 05F4                                 i1l1663 05D5  
                               i1l1655 05C3                                 i1l1647 05B4  
                               i1l1719 0665                                 i1l1815 076A  
                               u202_20 0245                                 u106_20 05EE  
                               u114_20 063E                                 u202_21 0244  
                               i1l1681 060C                                 i1l1673 05F5  
                               u106_21 05ED                                 i1l1665 05D9  
                               i1l1657 05C5                                 i1l1649 05B6  
                               u114_21 063D                                 i1l1675 05FC  
                               i1l1667 05DD                                 i1l1659 05CB  
                               i1l1691 061B                                 i1l1861 06B0  
                               i1l1669 05EE                                 u106_25 05EA  
                               i1l1677 0602                                 i1l1693 061D  
                               i1l1685 0611                                 i1l1871 06C8  
                               i1l1863 06B6                                 i1l1679 0607  
                               i1l1695 0621                                 i1l1687 0612  
                               u203_20 0250                                 u115_20 0648  
                               i1l1873 06D9                                 i1l1865 06B9  
                               i1l1881 06ED                                 u203_21 024F  
                               u115_21 0647                                 i1l1697 0626  
                               i1l1689 0616                                 i1l1875 06DF  
                               i1l1867 06C0                                 i1l1859 06AE  
                               i1l1699 062C                                 i1l1971 0676  
                               i1l1877 06E0                                 i1l1869 06C4  
                               u107_25 05F6                                 u115_25 0644  
                               i1l1885 0F76                                 i1l1973 067B  
                               i1l1981 068D                                 i1l1879 06E7  
                               i1l1991 003C                                 i1l1983 0691  
                               i1l1975 067C                                 i1l1967 066A  
                               u204_20 025A                                 u108_20 0602  
                               u204_21 0259                                 u108_21 0601  
                               i1l1993 004D                                 i1l1985 0692  
                               i1l1977 0680                                 i1l1969 0671  
                               i1l1987 06A3                                 i1l1979 068A  
                               u116_25 064F                                 i1l1997 0053  
                               i1l1989 06A5                                 i1l1999 0054  
                               u205_20 025F                                 u109_20 0607  
                               u117_20 065B                                 u205_21 025E  
                               u109_21 0606                                 u117_21 065A  
                               u206_20 026F                                 u118_20 0660  
                               u214_20 0735                                 u206_21 026E  
                               u118_21 065F                                 u214_21 0734  
                               u150_25 06E1                                 u151_20 06ED  
                               u215_20 0745                                 u151_21 06EC  
                               u215_21 0744                                 u143_25 077D  
                               u216_20 0753                                 u216_21 0752  
                               u160_25 0695                                 u145_20 06B6  
                               _INTCON 000B                                 u145_21 06B5  
                               u161_24 0044                                 u161_25 0042  
                               u170_20 009D                                 u162_20 004D  
                               u170_21 009C                                 u162_21 004C  
                               u146_25 06BA                                 u170_25 0099  
                               u147_20 06C8                                 u171_20 00AF  
                               u163_20 0052                                 u147_21 06C7  
                               u171_21 00AE                                 u163_21 0051  
                               u180_20 0118                                 u172_20 00B4  
                               u164_20 0058                                 u180_21 0117  
                               u172_21 00B3                                 u164_21 0057  
                               u148_25 06C9                                 u149_20 06D9  
                               u181_20 011D                                 u173_20 00B9  
                               u165_20 005D                                 u157_20 0671  
                               u149_21 06D8                                 u181_21 011C  
                               u173_21 00B8                                 u165_21 005C  
                               u157_21 0670                                 u149_25 06D5  
                               u190_20 01BB                                 u182_20 012A  
                               u174_20 00C9                                 u166_20 006F  
                               u158_20 0676                                 u190_21 01BA  
                               u182_21 0129                                 u174_21 00C8  
                               u166_21 006E                                 u158_21 0675  
                               u191_20 01C0                                 u183_20 013C  
                               u175_20 00DD                                 u167_20 0074  
                               u159_20 067B                                 u191_21 01BF  
                               u183_21 013B                                 u175_21 00DC  
                               u167_21 0073                                 u159_21 067A  
                               u175_25 00D9                                 u192_20 01C5  
                               u184_20 0142                                 u176_20 00F2  
                               u168_20 0079                                 u192_21 01C4  
                               u184_21 0141                                 u176_21 00F1  
                               u168_21 0078                                 u193_20 01D9  
                               u185_20 0147                                 u177_20 00F8  
                               u169_20 0089                                 u193_21 01D8  
                               u185_21 0146                                 u177_21 00F7  
                               u169_21 0088                                 u193_25 01D5  
                               u194_20 01E9                                 u186_20 015B  
                               u178_20 0109                                 u194_21 01E8  
                               u186_21 015A                                 u178_21 0108  
                               u195_20 01EE                                 u187_20 0181  
                               u179_20 0113                                 u195_21 01ED  
                               u187_21 0180                                 u179_21 0112  
                               u196_20 01F3                                 u188_20 019C  
                               u196_21 01F2                                 u188_21 019B  
                               u197_20 0206                                 u189_20 01A9  
                               u197_21 0205                                 u189_21 01A8  
                               u197_25 0202                                 u189_25 01A5  
                               u198_20 0216                                 u198_21 0215  
                               u199_20 021B                                 u199_21 021A  
                               _SSPADD 0093                                 _TRISC3 043B  
                               _TRISC4 043C                                 _SSPCON 0014  
                               _SSPBUF 0013                      __end_of_TIM1_Init 0FED  
                          _DisplayInit 07BA                              ??___awdiv 0074  
                            ??___awmod 0074                              ??___lldiv 002E  
                            ??___lwdiv 0074                      ?_I2C_Receive_NACK 0070  
                     ___awdiv@quotient 0076                        ___awmod@divisor 0070  
                      ___awmod@counter 0074                     ??_I2C_Receive_NACK 0026  
                __size_of_eepByteWrite 003F                              ?_I2C_Halt 0070  
                            ?_I2C_Init 0070                              ?_I2C_Stop 0070  
                            ?_ADC_Init 0070                    system_startup@F1177 005E  
                  system_startup@F1179 00A0                          _ADC_ClearFlag 0F82  
                               saved_w 007E                        ?_system_startup 0070  
                     I2C_Transmit@bval 0026                          _ADC_EnableINT 0F7A  
           __end_of_TIMER2_IRQ_Handler 06AE                __end_of__initialization 0038  
                       __pcstackCOMMON 0070                           __pidataBANK0 0FB5  
                         __pidataBANK1 0FAC                           _eepByteWrite 06F2  
               eepByteRead@error_check 002C               __size_of_ADC_IRQ_Handler 0112  
                           ??_I2C_Halt 0026                         ?_ADC_ClearFlag 0070  
                           ??_I2C_Init 0034                             ??_I2C_Stop 0026  
                           ??_ADC_Init 0026                         ?_ADC_EnableINT 0070  
                           __pbssBANK0 004C                      WriteSegVal@newval 007D  
                         I2C_Init@i2ch 0038                             __pmaintext 0334  
                           __pintentry 0004                          ??_WriteSegVal 0078  
                        ??_I2C_Restart 0026              __size_of_ADC_StartConv_NB 0004  
    TIMER1_IRQ_Handler@sig_blink_count 0054                        eepByteRead@Addr 0027  
                              _SSPCON2 0091                                _SSPSTAT 0094  
                           __stringtab 07EF                        eepByteRead@temp 002B  
                            _I2C_Start 0F9A                                _Seg_Val 0066  
                         _device_state 005B                           _desired_temp 0067  
                              ___awdiv 05AA                                ___awmod 0611  
                              ___lldiv 0542                                ___lwdiv 06AE  
                 ADC_Init@config_s_ptr 002A                        ??_ADC_ClearFlag 0026  
                         _heater_state 005A                                __ptext1 04D9  
                              __ptext2 0FDD                                __ptext3 0276  
                              __ptext4 0542                                __ptext5 07BA  
                              __ptext6 0FCD                                __ptext7 03D3  
                              __ptext8 0F7E                                __ptext9 0F7A  
              eepByteWrite@error_check 002C                           __size_of_ISR 0038  
                      ??_ADC_EnableINT 0026                       ___awmod@dividend 0072  
                  __end_of_WriteSegVal 079A                          ??_eepByteRead 0029  
                    ??_ADC_IRQ_Handler 0077                                clrloop0 0F8A  
                              main@val 00AD                    __end_of_I2C_Restart 0F9A  
                 end_of_initialization 0038       TIMER1_IRQ_Handler@tim1_ovf_count 0057  
           __end_ofi1_ADC_StartConv_NB 0F7A                             ?_I2C_Start 0070  
                      ___lldiv@divisor 0026                     _TIMER1_IRQ_Handler 003C  
                      ___lldiv@counter 0033                           ?_DisplayInit 0070  
                            _TIM1_Init 0FDD                           _average_temp 0064  
                  ?_TIMER1_IRQ_Handler 0070                       ??_system_startup 0039  
                         _display_mode 0068                      __size_of_I2C_Halt 000D  
                    __size_of_I2C_Init 00BE                           _cooler_state 0059  
                    __size_of_I2C_Stop 0009                      __size_of_ADC_Init 0097  
            __size_of_I2C_Receive_NACK 0020                   ??_TIMER1_IRQ_Handler 0020  
                  __end_of_eepByteRead 04D9                TIMER2_IRQ_Handler@digit 0058  
                   _TIMER2_IRQ_Handler 066A                             ?_TIM1_Init 0070  
                  ?_TIMER2_IRQ_Handler 0070                            _WriteSegVal 0769  
                TIMER1_IRQ_Handler@tst 0051                            _I2C_Restart 0F91  
                     _ADC_StartConv_NB 0F7E  TIMER1_IRQ_Handler@last_clicked_button 0055  
                  start_initialization 0015                            __end_of_ISR 0769  
                         _Current_Task 005D                   ??_TIMER2_IRQ_Handler 0070  
                          ??_I2C_Start 0026                             init_fetch0 0FED  
                          __pdataBANK0 005E                            __pdataBANK1 00A0  
             ADC_IRQ_Handler@temp_rsum 004C                              ___latbits 0002  
                        __pcstackBANK0 0020                          __pcstackBANK1 00A9  
                          _eepByteRead 046A                          ?_I2C_Transmit 0070  
                     ___lwdiv@dividend 0072                            ??_TIM1_Init 0026  
                             ?___awdiv 0070                               ?___awmod 0070  
                             ?___lldiv 0026                               ?___lwdiv 0070  
                 __size_of_DisplayInit 001F                        _ADC_IRQ_Handler 0164  
                            __pstrings 07EF                               _I2C_Halt 0FC0  
                             _I2C_Init 0276                               _I2C_Stop 0FA3  
                             _ADC_Init 03D3                       ___lwdiv@quotient 0074  
                     _I2C_Receive_NACK 079A                      interrupt_function 0004  
                       ??_I2C_Transmit 0026                              clear_ram0 0F89  
   TIMER1_IRQ_Handler@sig_blink_toggle 0053                     i1_ADC_StartConv_NB 0F76  
                          __stringbase 07F4   TIMER1_IRQ_Handler@temp_enter_counter 0052  
                __end_of_ADC_ClearFlag 0F89                    ?i1_ADC_StartConv_NB 0070  
                __end_of_ADC_EnableINT 0F7E                      _TIMER2_SETUP_60HZ 0FCD  
                   ?_TIMER2_SETUP_60HZ 0070                   ??i1_ADC_StartConv_NB 0070  
             __end_of_ADC_StartConv_NB 0F82                __end_of_ADC_IRQ_Handler 0276  
                        ?_eepByteWrite 0027                    ??_TIMER2_SETUP_60HZ 0026  
                     __size_of___awdiv 0067                       __size_of___awmod 0059  
                         ?_WriteSegVal 0070                       __size_of___lldiv 0068  
                     __size_of___lwdiv 0044                     __end_of__stringtab 07F5  
                         ?_I2C_Restart 0070                               _main$151 00AB  
                      ___lwdiv@divisor 0070                        ___lwdiv@counter 0076  
                             __ptext10 0F82                               __ptext11 06F2  
                             __ptext20 066A                               __ptext12 046A  
                             __ptext21 003C                               __ptext13 07D9  
                             __ptext22 0F76                               __ptext14 0FA3  
                             __ptext23 0769                               __ptext15 0F9A  
                             __ptext24 0611                               __ptext16 0F91  
                             __ptext25 05AA                               __ptext17 079A  
                             __ptext26 0164                               __ptext18 0FC0  
                             __ptext27 06AE                               __ptext19 0731  
            ADC_IRQ_Handler@temp_count 0050              __end_of_TIMER2_SETUP_60HZ 0FDD  
          __size_of_TIMER1_IRQ_Handler 0128                          __size_of_main 009F  
                       ??_eepByteWrite 0029                       eepByteWrite@Addr 0027  
                 __end_of_I2C_Transmit 07EF                       eepByteWrite@bval 002B  
     __end_ofTIMER2_IRQ_Handler@decode 07FF                           ?_eepByteRead 0027  
                             init_ram0 0FF1                __size_of_system_startup 0069  
                             intlevel1 0000            __size_of_TIMER2_IRQ_Handler 0044  
                     ___lldiv@dividend 002A                              stringcode 07EF  
                     ?_ADC_IRQ_Handler 0070               __end_of_I2C_Receive_NACK 07BA  
                           _OPTION_REG 0081                       ___lldiv@quotient 002F  
                             stringdir 07EF                               stringtab 07EF  
           __size_of_TIMER2_SETUP_60HZ 0010   TIMER1_IRQ_Handler@temp_reading_count 0056  
                        _display_state 005C                          ??_DisplayInit 0026  
